
lora_c_server.elf:     file format elf32-avr

Sections:
Idx Name          Size      VMA       LMA       File off  Algn
  0 .data         0000039c  00800100  00002b0a  00002b9e  2**0
                  CONTENTS, ALLOC, LOAD, DATA
  1 .text         00002b0a  00000000  00000000  00000094  2**1
                  CONTENTS, ALLOC, LOAD, READONLY, CODE
  2 .bss          00000057  0080049c  0080049c  00002f3a  2**0
                  ALLOC
  3 .comment      0000005c  00000000  00000000  00002f3a  2**0
                  CONTENTS, READONLY
  4 .note.gnu.avr.deviceinfo 00000040  00000000  00000000  00002f98  2**2
                  CONTENTS, READONLY
  5 .debug_aranges 00000258  00000000  00000000  00002fd8  2**0
                  CONTENTS, READONLY, DEBUGGING
  6 .debug_info   00004a72  00000000  00000000  00003230  2**0
                  CONTENTS, READONLY, DEBUGGING
  7 .debug_abbrev 00000b43  00000000  00000000  00007ca2  2**0
                  CONTENTS, READONLY, DEBUGGING
  8 .debug_line   0000345a  00000000  00000000  000087e5  2**0
                  CONTENTS, READONLY, DEBUGGING
  9 .debug_frame  000007a0  00000000  00000000  0000bc40  2**2
                  CONTENTS, READONLY, DEBUGGING
 10 .debug_str    0000100e  00000000  00000000  0000c3e0  2**0
                  CONTENTS, READONLY, DEBUGGING
 11 .debug_loc    000030e7  00000000  00000000  0000d3ee  2**0
                  CONTENTS, READONLY, DEBUGGING
 12 .debug_ranges 000002a8  00000000  00000000  000104d5  2**0
                  CONTENTS, READONLY, DEBUGGING

Disassembly of section .text:

00000000 <__vectors>:
       0:	0c 94 3a 00 	jmp	0x74	; 0x74 <__ctors_end>
       4:	0c 94 57 00 	jmp	0xae	; 0xae <__bad_interrupt>
       8:	0c 94 57 00 	jmp	0xae	; 0xae <__bad_interrupt>
       c:	0c 94 57 00 	jmp	0xae	; 0xae <__bad_interrupt>
      10:	0c 94 57 00 	jmp	0xae	; 0xae <__bad_interrupt>
      14:	0c 94 57 00 	jmp	0xae	; 0xae <__bad_interrupt>
      18:	0c 94 57 00 	jmp	0xae	; 0xae <__bad_interrupt>
      1c:	0c 94 57 00 	jmp	0xae	; 0xae <__bad_interrupt>
      20:	0c 94 57 00 	jmp	0xae	; 0xae <__bad_interrupt>
      24:	0c 94 57 00 	jmp	0xae	; 0xae <__bad_interrupt>
      28:	0c 94 57 00 	jmp	0xae	; 0xae <__bad_interrupt>
      2c:	0c 94 57 00 	jmp	0xae	; 0xae <__bad_interrupt>
      30:	0c 94 57 00 	jmp	0xae	; 0xae <__bad_interrupt>
      34:	0c 94 57 00 	jmp	0xae	; 0xae <__bad_interrupt>
      38:	0c 94 56 08 	jmp	0x10ac	; 0x10ac <__vector_14>
      3c:	0c 94 57 00 	jmp	0xae	; 0xae <__bad_interrupt>
      40:	0c 94 57 00 	jmp	0xae	; 0xae <__bad_interrupt>
      44:	0c 94 57 00 	jmp	0xae	; 0xae <__bad_interrupt>
      48:	0c 94 57 00 	jmp	0xae	; 0xae <__bad_interrupt>
      4c:	0c 94 57 00 	jmp	0xae	; 0xae <__bad_interrupt>
      50:	0c 94 57 00 	jmp	0xae	; 0xae <__bad_interrupt>
      54:	0c 94 57 00 	jmp	0xae	; 0xae <__bad_interrupt>
      58:	0c 94 57 00 	jmp	0xae	; 0xae <__bad_interrupt>
      5c:	0c 94 57 00 	jmp	0xae	; 0xae <__bad_interrupt>
      60:	0c 94 57 00 	jmp	0xae	; 0xae <__bad_interrupt>
      64:	0c 94 57 00 	jmp	0xae	; 0xae <__bad_interrupt>

00000068 <__trampolines_end>:
      68:	63 64       	ori	r22, 0x43	; 67
      6a:	69 6e       	ori	r22, 0xE9	; 233
      6c:	6f 70       	andi	r22, 0x0F	; 15
      6e:	73 75       	andi	r23, 0x53	; 83
      70:	78 58       	subi	r23, 0x88	; 136
      72:	5b 00       	.word	0x005b	; ????

00000074 <__ctors_end>:
      74:	11 24       	eor	r1, r1
      76:	1f be       	out	0x3f, r1	; 63
      78:	cf ef       	ldi	r28, 0xFF	; 255
      7a:	d8 e0       	ldi	r29, 0x08	; 8
      7c:	de bf       	out	0x3e, r29	; 62
      7e:	cd bf       	out	0x3d, r28	; 61

00000080 <__do_copy_data>:
      80:	14 e0       	ldi	r17, 0x04	; 4
      82:	a0 e0       	ldi	r26, 0x00	; 0
      84:	b1 e0       	ldi	r27, 0x01	; 1
      86:	ea e0       	ldi	r30, 0x0A	; 10
      88:	fb e2       	ldi	r31, 0x2B	; 43
      8a:	02 c0       	rjmp	.+4      	; 0x90 <__do_copy_data+0x10>
      8c:	05 90       	lpm	r0, Z+
      8e:	0d 92       	st	X+, r0
      90:	ac 39       	cpi	r26, 0x9C	; 156
      92:	b1 07       	cpc	r27, r17
      94:	d9 f7       	brne	.-10     	; 0x8c <__do_copy_data+0xc>

00000096 <__do_clear_bss>:
      96:	24 e0       	ldi	r18, 0x04	; 4
      98:	ac e9       	ldi	r26, 0x9C	; 156
      9a:	b4 e0       	ldi	r27, 0x04	; 4
      9c:	01 c0       	rjmp	.+2      	; 0xa0 <.do_clear_bss_start>

0000009e <.do_clear_bss_loop>:
      9e:	1d 92       	st	X+, r1

000000a0 <.do_clear_bss_start>:
      a0:	a3 3f       	cpi	r26, 0xF3	; 243
      a2:	b2 07       	cpc	r27, r18
      a4:	e1 f7       	brne	.-8      	; 0x9e <.do_clear_bss_loop>
      a6:	0e 94 89 0c 	call	0x1912	; 0x1912 <main>
      aa:	0c 94 83 15 	jmp	0x2b06	; 0x2b06 <_exit>

000000ae <__bad_interrupt>:
      ae:	0c 94 00 00 	jmp	0	; 0x0 <__vectors>

000000b2 <USART_Receive>:
				packetReceived = true;
			}
			break;
		}
	}while(!packetReceived);
}
      b2:	e0 ec       	ldi	r30, 0xC0	; 192
      b4:	f0 e0       	ldi	r31, 0x00	; 0
      b6:	80 81       	ld	r24, Z
      b8:	88 23       	and	r24, r24
      ba:	ec f7       	brge	.-6      	; 0xb6 <USART_Receive+0x4>
      bc:	80 91 c6 00 	lds	r24, 0x00C6	; 0x8000c6 <__TEXT_REGION_LENGTH__+0x7e00c6>
      c0:	90 e0       	ldi	r25, 0x00	; 0
      c2:	08 95       	ret

000000c4 <USART_Transmit>:
      c4:	8a 30       	cpi	r24, 0x0A	; 10
      c6:	41 f4       	brne	.+16     	; 0xd8 <USART_Transmit+0x14>
      c8:	e0 ec       	ldi	r30, 0xC0	; 192
      ca:	f0 e0       	ldi	r31, 0x00	; 0
      cc:	90 81       	ld	r25, Z
      ce:	95 ff       	sbrs	r25, 5
      d0:	fd cf       	rjmp	.-6      	; 0xcc <USART_Transmit+0x8>
      d2:	9d e0       	ldi	r25, 0x0D	; 13
      d4:	90 93 c6 00 	sts	0x00C6, r25	; 0x8000c6 <__TEXT_REGION_LENGTH__+0x7e00c6>
      d8:	e0 ec       	ldi	r30, 0xC0	; 192
      da:	f0 e0       	ldi	r31, 0x00	; 0
      dc:	90 81       	ld	r25, Z
      de:	95 ff       	sbrs	r25, 5
      e0:	fd cf       	rjmp	.-6      	; 0xdc <USART_Transmit+0x18>
      e2:	80 93 c6 00 	sts	0x00C6, r24	; 0x8000c6 <__TEXT_REGION_LENGTH__+0x7e00c6>
      e6:	80 e0       	ldi	r24, 0x00	; 0
      e8:	90 e0       	ldi	r25, 0x00	; 0
      ea:	08 95       	ret

000000ec <ErrorSet>:
      ec:	80 93 d3 04 	sts	0x04D3, r24	; 0x8004d3 <er>
      f0:	88 23       	and	r24, r24
      f2:	61 f0       	breq	.+24     	; 0x10c <ErrorSet+0x20>
      f4:	1f 92       	push	r1
      f6:	8f 93       	push	r24
      f8:	8d e0       	ldi	r24, 0x0D	; 13
      fa:	91 e0       	ldi	r25, 0x01	; 1
      fc:	9f 93       	push	r25
      fe:	8f 93       	push	r24
     100:	0e 94 3d 0f 	call	0x1e7a	; 0x1e7a <printf>
     104:	0f 90       	pop	r0
     106:	0f 90       	pop	r0
     108:	0f 90       	pop	r0
     10a:	0f 90       	pop	r0
     10c:	08 95       	ret

0000010e <ErrorSetMsg>:
     10e:	80 93 d3 04 	sts	0x04D3, r24	; 0x8004d3 <er>
     112:	88 23       	and	r24, r24
     114:	81 f0       	breq	.+32     	; 0x136 <ErrorSetMsg+0x28>
     116:	7f 93       	push	r23
     118:	6f 93       	push	r22
     11a:	1f 92       	push	r1
     11c:	8f 93       	push	r24
     11e:	84 e2       	ldi	r24, 0x24	; 36
     120:	91 e0       	ldi	r25, 0x01	; 1
     122:	9f 93       	push	r25
     124:	8f 93       	push	r24
     126:	0e 94 3d 0f 	call	0x1e7a	; 0x1e7a <printf>
     12a:	0f 90       	pop	r0
     12c:	0f 90       	pop	r0
     12e:	0f 90       	pop	r0
     130:	0f 90       	pop	r0
     132:	0f 90       	pop	r0
     134:	0f 90       	pop	r0
     136:	08 95       	ret

00000138 <SPIbegin>:
     138:	e4 e6       	ldi	r30, 0x64	; 100
     13a:	f0 e0       	ldi	r31, 0x00	; 0
     13c:	90 81       	ld	r25, Z
     13e:	9b 7f       	andi	r25, 0xFB	; 251
     140:	90 83       	st	Z, r25
     142:	66 23       	and	r22, r22
     144:	11 f0       	breq	.+4      	; 0x14a <SPIbegin+0x12>
     146:	90 e5       	ldi	r25, 0x50	; 80
     148:	01 c0       	rjmp	.+2      	; 0x14c <SPIbegin+0x14>
     14a:	90 e7       	ldi	r25, 0x70	; 112
     14c:	4c 70       	andi	r20, 0x0C	; 12
     14e:	28 2f       	mov	r18, r24
     150:	23 70       	andi	r18, 0x03	; 3
     152:	42 2b       	or	r20, r18
     154:	49 2b       	or	r20, r25
     156:	82 fb       	bst	r24, 2
     158:	88 27       	eor	r24, r24
     15a:	80 f9       	bld	r24, 0
     15c:	22 9a       	sbi	0x04, 2	; 4
     15e:	25 9a       	sbi	0x04, 5	; 4
     160:	23 9a       	sbi	0x04, 3	; 4
     162:	24 98       	cbi	0x04, 4	; 4
     164:	2a 9a       	sbi	0x05, 2	; 5
     166:	8d bd       	out	0x2d, r24	; 45
     168:	4c bd       	out	0x2c, r20	; 44
     16a:	8d b5       	in	r24, 0x2d	; 45
     16c:	1f 92       	push	r1
     16e:	8f 93       	push	r24
     170:	82 e5       	ldi	r24, 0x52	; 82
     172:	91 e0       	ldi	r25, 0x01	; 1
     174:	9f 93       	push	r25
     176:	8f 93       	push	r24
     178:	0e 94 3d 0f 	call	0x1e7a	; 0x1e7a <printf>
     17c:	8c b5       	in	r24, 0x2c	; 44
     17e:	1f 92       	push	r1
     180:	8f 93       	push	r24
     182:	8b e6       	ldi	r24, 0x6B	; 107
     184:	91 e0       	ldi	r25, 0x01	; 1
     186:	9f 93       	push	r25
     188:	8f 93       	push	r24
     18a:	0e 94 3d 0f 	call	0x1e7a	; 0x1e7a <printf>
     18e:	8d b7       	in	r24, 0x3d	; 61
     190:	9e b7       	in	r25, 0x3e	; 62
     192:	08 96       	adiw	r24, 0x08	; 8
     194:	0f b6       	in	r0, 0x3f	; 63
     196:	f8 94       	cli
     198:	9e bf       	out	0x3e, r25	; 62
     19a:	0f be       	out	0x3f, r0	; 63
     19c:	8d bf       	out	0x3d, r24	; 61
     19e:	08 95       	ret

000001a0 <getOpMode>:
     1a0:	f8 94       	cli
     1a2:	2a 98       	cbi	0x05, 2	; 5
     1a4:	81 e0       	ldi	r24, 0x01	; 1
     1a6:	8e bd       	out	0x2e, r24	; 46
     1a8:	00 00       	nop
     1aa:	0d b4       	in	r0, 0x2d	; 45
     1ac:	07 fe       	sbrs	r0, 7
     1ae:	fd cf       	rjmp	.-6      	; 0x1aa <getOpMode+0xa>
     1b0:	8d ed       	ldi	r24, 0xDD	; 221
     1b2:	8e bd       	out	0x2e, r24	; 46
     1b4:	00 00       	nop
     1b6:	0d b4       	in	r0, 0x2d	; 45
     1b8:	07 fe       	sbrs	r0, 7
     1ba:	fd cf       	rjmp	.-6      	; 0x1b6 <getOpMode+0x16>
     1bc:	2a 9a       	sbi	0x05, 2	; 5
     1be:	78 94       	sei
     1c0:	8e b5       	in	r24, 0x2e	; 46
     1c2:	80 93 0c 01 	sts	0x010C, r24	; 0x80010c <operationMode>
     1c6:	98 2f       	mov	r25, r24
     1c8:	99 1f       	adc	r25, r25
     1ca:	99 27       	eor	r25, r25
     1cc:	99 1f       	adc	r25, r25
     1ce:	90 93 c4 04 	sts	0x04C4, r25	; 0x8004c4 <modem>
     1d2:	08 95       	ret

000001d4 <setLora>:
     1d4:	cf 93       	push	r28
     1d6:	df 93       	push	r29
     1d8:	80 91 c4 04 	lds	r24, 0x04C4	; 0x8004c4 <modem>
     1dc:	81 11       	cpse	r24, r1
     1de:	5a c0       	rjmp	.+180    	; 0x294 <setLora+0xc0>
     1e0:	c1 e8       	ldi	r28, 0x81	; 129
     1e2:	d0 e8       	ldi	r29, 0x80	; 128
     1e4:	2f ef       	ldi	r18, 0xFF	; 255
     1e6:	81 ee       	ldi	r24, 0xE1	; 225
     1e8:	94 e0       	ldi	r25, 0x04	; 4
     1ea:	21 50       	subi	r18, 0x01	; 1
     1ec:	80 40       	sbci	r24, 0x00	; 0
     1ee:	90 40       	sbci	r25, 0x00	; 0
     1f0:	e1 f7       	brne	.-8      	; 0x1ea <setLora+0x16>
     1f2:	00 c0       	rjmp	.+0      	; 0x1f4 <setLora+0x20>
     1f4:	00 00       	nop
     1f6:	f8 94       	cli
     1f8:	2a 98       	cbi	0x05, 2	; 5
     1fa:	ce bd       	out	0x2e, r28	; 46
     1fc:	00 00       	nop
     1fe:	0d b4       	in	r0, 0x2d	; 45
     200:	07 fe       	sbrs	r0, 7
     202:	fd cf       	rjmp	.-6      	; 0x1fe <setLora+0x2a>
     204:	1e bc       	out	0x2e, r1	; 46
     206:	00 00       	nop
     208:	0d b4       	in	r0, 0x2d	; 45
     20a:	07 fe       	sbrs	r0, 7
     20c:	fd cf       	rjmp	.-6      	; 0x208 <setLora+0x34>
     20e:	2a 9a       	sbi	0x05, 2	; 5
     210:	78 94       	sei
     212:	8e b5       	in	r24, 0x2e	; 46
     214:	2f ef       	ldi	r18, 0xFF	; 255
     216:	80 e7       	ldi	r24, 0x70	; 112
     218:	92 e0       	ldi	r25, 0x02	; 2
     21a:	21 50       	subi	r18, 0x01	; 1
     21c:	80 40       	sbci	r24, 0x00	; 0
     21e:	90 40       	sbci	r25, 0x00	; 0
     220:	e1 f7       	brne	.-8      	; 0x21a <setLora+0x46>
     222:	00 c0       	rjmp	.+0      	; 0x224 <setLora+0x50>
     224:	00 00       	nop
     226:	f8 94       	cli
     228:	2a 98       	cbi	0x05, 2	; 5
     22a:	ce bd       	out	0x2e, r28	; 46
     22c:	00 00       	nop
     22e:	0d b4       	in	r0, 0x2d	; 45
     230:	07 fe       	sbrs	r0, 7
     232:	fd cf       	rjmp	.-6      	; 0x22e <setLora+0x5a>
     234:	de bd       	out	0x2e, r29	; 46
     236:	00 00       	nop
     238:	0d b4       	in	r0, 0x2d	; 45
     23a:	07 fe       	sbrs	r0, 7
     23c:	fd cf       	rjmp	.-6      	; 0x238 <setLora+0x64>
     23e:	2a 9a       	sbi	0x05, 2	; 5
     240:	78 94       	sei
     242:	8e b5       	in	r24, 0x2e	; 46
     244:	2f ef       	ldi	r18, 0xFF	; 255
     246:	80 e7       	ldi	r24, 0x70	; 112
     248:	92 e0       	ldi	r25, 0x02	; 2
     24a:	21 50       	subi	r18, 0x01	; 1
     24c:	80 40       	sbci	r24, 0x00	; 0
     24e:	90 40       	sbci	r25, 0x00	; 0
     250:	e1 f7       	brne	.-8      	; 0x24a <setLora+0x76>
     252:	00 c0       	rjmp	.+0      	; 0x254 <setLora+0x80>
     254:	00 00       	nop
     256:	f8 94       	cli
     258:	2a 98       	cbi	0x05, 2	; 5
     25a:	ce bd       	out	0x2e, r28	; 46
     25c:	00 00       	nop
     25e:	0d b4       	in	r0, 0x2d	; 45
     260:	07 fe       	sbrs	r0, 7
     262:	fd cf       	rjmp	.-6      	; 0x25e <setLora+0x8a>
     264:	ce bd       	out	0x2e, r28	; 46
     266:	00 00       	nop
     268:	0d b4       	in	r0, 0x2d	; 45
     26a:	07 fe       	sbrs	r0, 7
     26c:	fd cf       	rjmp	.-6      	; 0x268 <setLora+0x94>
     26e:	2a 9a       	sbi	0x05, 2	; 5
     270:	78 94       	sei
     272:	8e b5       	in	r24, 0x2e	; 46
     274:	2f ef       	ldi	r18, 0xFF	; 255
     276:	80 e7       	ldi	r24, 0x70	; 112
     278:	92 e0       	ldi	r25, 0x02	; 2
     27a:	21 50       	subi	r18, 0x01	; 1
     27c:	80 40       	sbci	r24, 0x00	; 0
     27e:	90 40       	sbci	r25, 0x00	; 0
     280:	e1 f7       	brne	.-8      	; 0x27a <setLora+0xa6>
     282:	00 c0       	rjmp	.+0      	; 0x284 <setLora+0xb0>
     284:	00 00       	nop
     286:	0e 94 d0 00 	call	0x1a0	; 0x1a0 <getOpMode>
     28a:	80 91 0c 01 	lds	r24, 0x010C	; 0x80010c <operationMode>
     28e:	81 38       	cpi	r24, 0x81	; 129
     290:	09 f0       	breq	.+2      	; 0x294 <setLora+0xc0>
     292:	a8 cf       	rjmp	.-176    	; 0x1e4 <setLora+0x10>
     294:	0e 94 d0 00 	call	0x1a0	; 0x1a0 <getOpMode>
     298:	81 38       	cpi	r24, 0x81	; 129
     29a:	29 f4       	brne	.+10     	; 0x2a6 <setLora+0xd2>
     29c:	80 e0       	ldi	r24, 0x00	; 0
     29e:	0e 94 76 00 	call	0xec	; 0xec <ErrorSet>
     2a2:	81 e0       	ldi	r24, 0x01	; 1
     2a4:	06 c0       	rjmp	.+12     	; 0x2b2 <setLora+0xde>
     2a6:	64 e8       	ldi	r22, 0x84	; 132
     2a8:	71 e0       	ldi	r23, 0x01	; 1
     2aa:	85 e0       	ldi	r24, 0x05	; 5
     2ac:	0e 94 87 00 	call	0x10e	; 0x10e <ErrorSetMsg>
     2b0:	80 e0       	ldi	r24, 0x00	; 0
     2b2:	df 91       	pop	r29
     2b4:	cf 91       	pop	r28
     2b6:	08 95       	ret

000002b8 <setValidFIFO>:
     2b8:	0e 94 d0 00 	call	0x1a0	; 0x1a0 <getOpMode>
     2bc:	80 91 c4 04 	lds	r24, 0x04C4	; 0x8004c4 <modem>
     2c0:	81 11       	cpse	r24, r1
     2c2:	03 c0       	rjmp	.+6      	; 0x2ca <setValidFIFO+0x12>
     2c4:	0e 94 ea 00 	call	0x1d4	; 0x1d4 <setLora>
     2c8:	08 95       	ret
     2ca:	80 91 0c 01 	lds	r24, 0x010C	; 0x80010c <operationMode>
     2ce:	81 38       	cpi	r24, 0x81	; 129
     2d0:	29 f4       	brne	.+10     	; 0x2dc <setValidFIFO+0x24>
     2d2:	80 e0       	ldi	r24, 0x00	; 0
     2d4:	0e 94 76 00 	call	0xec	; 0xec <ErrorSet>
     2d8:	81 e0       	ldi	r24, 0x01	; 1
     2da:	08 95       	ret
     2dc:	80 38       	cpi	r24, 0x80	; 128
     2de:	29 f5       	brne	.+74     	; 0x32a <setValidFIFO+0x72>
     2e0:	f8 94       	cli
     2e2:	2a 98       	cbi	0x05, 2	; 5
     2e4:	81 e8       	ldi	r24, 0x81	; 129
     2e6:	8e bd       	out	0x2e, r24	; 46
     2e8:	00 00       	nop
     2ea:	0d b4       	in	r0, 0x2d	; 45
     2ec:	07 fe       	sbrs	r0, 7
     2ee:	fd cf       	rjmp	.-6      	; 0x2ea <setValidFIFO+0x32>
     2f0:	81 e8       	ldi	r24, 0x81	; 129
     2f2:	8e bd       	out	0x2e, r24	; 46
     2f4:	00 00       	nop
     2f6:	0d b4       	in	r0, 0x2d	; 45
     2f8:	07 fe       	sbrs	r0, 7
     2fa:	fd cf       	rjmp	.-6      	; 0x2f6 <setValidFIFO+0x3e>
     2fc:	2a 9a       	sbi	0x05, 2	; 5
     2fe:	78 94       	sei
     300:	8e b5       	in	r24, 0x2e	; 46
     302:	0e 94 d0 00 	call	0x1a0	; 0x1a0 <getOpMode>
     306:	81 38       	cpi	r24, 0x81	; 129
     308:	39 f0       	breq	.+14     	; 0x318 <setValidFIFO+0x60>
     30a:	62 ea       	ldi	r22, 0xA2	; 162
     30c:	71 e0       	ldi	r23, 0x01	; 1
     30e:	85 e0       	ldi	r24, 0x05	; 5
     310:	0e 94 87 00 	call	0x10e	; 0x10e <ErrorSetMsg>
     314:	80 e0       	ldi	r24, 0x00	; 0
     316:	08 95       	ret
     318:	80 e0       	ldi	r24, 0x00	; 0
     31a:	0e 94 76 00 	call	0xec	; 0xec <ErrorSet>
     31e:	81 e0       	ldi	r24, 0x01	; 1
     320:	08 95       	ret
     322:	85 e3       	ldi	r24, 0x35	; 53
     324:	8a 95       	dec	r24
     326:	f1 f7       	brne	.-4      	; 0x324 <setValidFIFO+0x6c>
     328:	00 00       	nop
     32a:	0e 94 d0 00 	call	0x1a0	; 0x1a0 <getOpMode>
     32e:	81 38       	cpi	r24, 0x81	; 129
     330:	c1 f7       	brne	.-16     	; 0x322 <setValidFIFO+0x6a>
     332:	81 e0       	ldi	r24, 0x01	; 1
     334:	08 95       	ret

00000336 <checkValidState>:
     336:	0e 94 d0 00 	call	0x1a0	; 0x1a0 <getOpMode>
     33a:	80 91 0c 01 	lds	r24, 0x010C	; 0x80010c <operationMode>
     33e:	80 58       	subi	r24, 0x80	; 128
     340:	82 30       	cpi	r24, 0x02	; 2
     342:	28 f4       	brcc	.+10     	; 0x34e <checkValidState+0x18>
     344:	80 e0       	ldi	r24, 0x00	; 0
     346:	0e 94 76 00 	call	0xec	; 0xec <ErrorSet>
     34a:	81 e0       	ldi	r24, 0x01	; 1
     34c:	08 95       	ret
     34e:	80 e0       	ldi	r24, 0x00	; 0
     350:	08 95       	ret

00000352 <setValidState>:
     352:	cf 93       	push	r28
     354:	c8 2f       	mov	r28, r24
     356:	0f c0       	rjmp	.+30     	; 0x376 <setValidState+0x24>
     358:	8f e8       	ldi	r24, 0x8F	; 143
     35a:	91 e0       	ldi	r25, 0x01	; 1
     35c:	01 97       	sbiw	r24, 0x01	; 1
     35e:	f1 f7       	brne	.-4      	; 0x35c <setValidState+0xa>
     360:	00 c0       	rjmp	.+0      	; 0x362 <setValidState+0x10>
     362:	00 00       	nop
     364:	c1 11       	cpse	r28, r1
     366:	06 c0       	rjmp	.+12     	; 0x374 <setValidState+0x22>
     368:	68 eb       	ldi	r22, 0xB8	; 184
     36a:	71 e0       	ldi	r23, 0x01	; 1
     36c:	80 e1       	ldi	r24, 0x10	; 16
     36e:	0e 94 87 00 	call	0x10e	; 0x10e <ErrorSetMsg>
     372:	05 c0       	rjmp	.+10     	; 0x37e <setValidState+0x2c>
     374:	c1 50       	subi	r28, 0x01	; 1
     376:	0e 94 9b 01 	call	0x336	; 0x336 <checkValidState>
     37a:	88 23       	and	r24, r24
     37c:	69 f3       	breq	.-38     	; 0x358 <setValidState+0x6>
     37e:	cf 91       	pop	r28
     380:	08 95       	ret

00000382 <setOpMode>:
     382:	cf 93       	push	r28
     384:	c8 2f       	mov	r28, r24
     386:	82 e3       	ldi	r24, 0x32	; 50
     388:	0e 94 a9 01 	call	0x352	; 0x352 <setValidState>
     38c:	f8 94       	cli
     38e:	2a 98       	cbi	0x05, 2	; 5
     390:	81 e8       	ldi	r24, 0x81	; 129
     392:	8e bd       	out	0x2e, r24	; 46
     394:	00 00       	nop
     396:	0d b4       	in	r0, 0x2d	; 45
     398:	07 fe       	sbrs	r0, 7
     39a:	fd cf       	rjmp	.-6      	; 0x396 <setOpMode+0x14>
     39c:	ce bd       	out	0x2e, r28	; 46
     39e:	00 00       	nop
     3a0:	0d b4       	in	r0, 0x2d	; 45
     3a2:	07 fe       	sbrs	r0, 7
     3a4:	fd cf       	rjmp	.-6      	; 0x3a0 <setOpMode+0x1e>
     3a6:	2a 9a       	sbi	0x05, 2	; 5
     3a8:	78 94       	sei
     3aa:	8e b5       	in	r24, 0x2e	; 46
     3ac:	cf 91       	pop	r28
     3ae:	08 95       	ret

000003b0 <setFrequency>:
     3b0:	cf 92       	push	r12
     3b2:	df 92       	push	r13
     3b4:	ef 92       	push	r14
     3b6:	ff 92       	push	r15
     3b8:	6b 01       	movw	r12, r22
     3ba:	7c 01       	movw	r14, r24
     3bc:	82 e3       	ldi	r24, 0x32	; 50
     3be:	0e 94 a9 01 	call	0x352	; 0x352 <setValidState>
     3c2:	c7 01       	movw	r24, r14
     3c4:	aa 27       	eor	r26, r26
     3c6:	bb 27       	eor	r27, r27
     3c8:	e9 eb       	ldi	r30, 0xB9	; 185
     3ca:	f4 e0       	ldi	r31, 0x04	; 4
     3cc:	80 83       	st	Z, r24
     3ce:	d1 82       	std	Z+1, r13	; 0x01
     3d0:	c2 82       	std	Z+2, r12	; 0x02
     3d2:	f8 94       	cli
     3d4:	2a 98       	cbi	0x05, 2	; 5
     3d6:	26 e8       	ldi	r18, 0x86	; 134
     3d8:	2e bd       	out	0x2e, r18	; 46
     3da:	00 00       	nop
     3dc:	0d b4       	in	r0, 0x2d	; 45
     3de:	07 fe       	sbrs	r0, 7
     3e0:	fd cf       	rjmp	.-6      	; 0x3dc <setFrequency+0x2c>
     3e2:	8e bd       	out	0x2e, r24	; 46
     3e4:	00 00       	nop
     3e6:	0d b4       	in	r0, 0x2d	; 45
     3e8:	07 fe       	sbrs	r0, 7
     3ea:	fd cf       	rjmp	.-6      	; 0x3e6 <setFrequency+0x36>
     3ec:	2a 9a       	sbi	0x05, 2	; 5
     3ee:	78 94       	sei
     3f0:	8e b5       	in	r24, 0x2e	; 46
     3f2:	80 91 ba 04 	lds	r24, 0x04BA	; 0x8004ba <frequency+0x1>
     3f6:	f8 94       	cli
     3f8:	2a 98       	cbi	0x05, 2	; 5
     3fa:	97 e8       	ldi	r25, 0x87	; 135
     3fc:	9e bd       	out	0x2e, r25	; 46
     3fe:	00 00       	nop
     400:	0d b4       	in	r0, 0x2d	; 45
     402:	07 fe       	sbrs	r0, 7
     404:	fd cf       	rjmp	.-6      	; 0x400 <__LOCK_REGION_LENGTH__>
     406:	8e bd       	out	0x2e, r24	; 46
     408:	00 00       	nop
     40a:	0d b4       	in	r0, 0x2d	; 45
     40c:	07 fe       	sbrs	r0, 7
     40e:	fd cf       	rjmp	.-6      	; 0x40a <__LOCK_REGION_LENGTH__+0xa>
     410:	2a 9a       	sbi	0x05, 2	; 5
     412:	78 94       	sei
     414:	8e b5       	in	r24, 0x2e	; 46
     416:	80 91 bb 04 	lds	r24, 0x04BB	; 0x8004bb <frequency+0x2>
     41a:	f8 94       	cli
     41c:	2a 98       	cbi	0x05, 2	; 5
     41e:	98 e8       	ldi	r25, 0x88	; 136
     420:	9e bd       	out	0x2e, r25	; 46
     422:	00 00       	nop
     424:	0d b4       	in	r0, 0x2d	; 45
     426:	07 fe       	sbrs	r0, 7
     428:	fd cf       	rjmp	.-6      	; 0x424 <__LOCK_REGION_LENGTH__+0x24>
     42a:	8e bd       	out	0x2e, r24	; 46
     42c:	00 00       	nop
     42e:	0d b4       	in	r0, 0x2d	; 45
     430:	07 fe       	sbrs	r0, 7
     432:	fd cf       	rjmp	.-6      	; 0x42e <__LOCK_REGION_LENGTH__+0x2e>
     434:	2a 9a       	sbi	0x05, 2	; 5
     436:	78 94       	sei
     438:	8e b5       	in	r24, 0x2e	; 46
     43a:	ff 90       	pop	r15
     43c:	ef 90       	pop	r14
     43e:	df 90       	pop	r13
     440:	cf 90       	pop	r12
     442:	08 95       	ret

00000444 <setPower>:
     444:	85 31       	cpi	r24, 0x15	; 21
     446:	91 05       	cpc	r25, r1
     448:	5c f0       	brlt	.+22     	; 0x460 <setPower+0x1c>
     44a:	e5 eb       	ldi	r30, 0xB5	; 181
     44c:	f4 e0       	ldi	r31, 0x04	; 4
     44e:	84 e1       	ldi	r24, 0x14	; 20
     450:	81 83       	std	Z+1, r24	; 0x01
     452:	8f e0       	ldi	r24, 0x0F	; 15
     454:	82 83       	std	Z+2, r24	; 0x02
     456:	81 e0       	ldi	r24, 0x01	; 1
     458:	80 83       	st	Z, r24
     45a:	87 e8       	ldi	r24, 0x87	; 135
     45c:	83 83       	std	Z+3, r24	; 0x03
     45e:	35 c0       	rjmp	.+106    	; 0x4ca <setPower+0x86>
     460:	9c 01       	movw	r18, r24
     462:	22 51       	subi	r18, 0x12	; 18
     464:	31 09       	sbc	r19, r1
     466:	22 30       	cpi	r18, 0x02	; 2
     468:	31 05       	cpc	r19, r1
     46a:	48 f4       	brcc	.+18     	; 0x47e <setPower+0x3a>
     46c:	e5 eb       	ldi	r30, 0xB5	; 181
     46e:	f4 e0       	ldi	r31, 0x04	; 4
     470:	84 e8       	ldi	r24, 0x84	; 132
     472:	83 83       	std	Z+3, r24	; 0x03
     474:	8f e0       	ldi	r24, 0x0F	; 15
     476:	81 83       	std	Z+1, r24	; 0x01
     478:	81 e0       	ldi	r24, 0x01	; 1
     47a:	80 83       	st	Z, r24
     47c:	26 c0       	rjmp	.+76     	; 0x4ca <setPower+0x86>
     47e:	9c 01       	movw	r18, r24
     480:	2f 50       	subi	r18, 0x0F	; 15
     482:	31 09       	sbc	r19, r1
     484:	23 30       	cpi	r18, 0x03	; 3
     486:	31 05       	cpc	r19, r1
     488:	50 f4       	brcc	.+20     	; 0x49e <setPower+0x5a>
     48a:	e5 eb       	ldi	r30, 0xB5	; 181
     48c:	f4 e0       	ldi	r31, 0x04	; 4
     48e:	94 e8       	ldi	r25, 0x84	; 132
     490:	93 83       	std	Z+3, r25	; 0x03
     492:	81 83       	std	Z+1, r24	; 0x01
     494:	91 e0       	ldi	r25, 0x01	; 1
     496:	90 83       	st	Z, r25
     498:	82 50       	subi	r24, 0x02	; 2
     49a:	82 83       	std	Z+2, r24	; 0x02
     49c:	16 c0       	rjmp	.+44     	; 0x4ca <setPower+0x86>
     49e:	9c 01       	movw	r18, r24
     4a0:	2f 5f       	subi	r18, 0xFF	; 255
     4a2:	3f 4f       	sbci	r19, 0xFF	; 255
     4a4:	2f 30       	cpi	r18, 0x0F	; 15
     4a6:	31 05       	cpc	r19, r1
     4a8:	48 f4       	brcc	.+18     	; 0x4bc <setPower+0x78>
     4aa:	e5 eb       	ldi	r30, 0xB5	; 181
     4ac:	f4 e0       	ldi	r31, 0x04	; 4
     4ae:	94 e8       	ldi	r25, 0x84	; 132
     4b0:	93 83       	std	Z+3, r25	; 0x03
     4b2:	81 83       	std	Z+1, r24	; 0x01
     4b4:	10 82       	st	Z, r1
     4b6:	8f 5f       	subi	r24, 0xFF	; 255
     4b8:	82 83       	std	Z+2, r24	; 0x02
     4ba:	07 c0       	rjmp	.+14     	; 0x4ca <setPower+0x86>
     4bc:	e5 eb       	ldi	r30, 0xB5	; 181
     4be:	f4 e0       	ldi	r31, 0x04	; 4
     4c0:	11 82       	std	Z+1, r1	; 0x01
     4c2:	84 e8       	ldi	r24, 0x84	; 132
     4c4:	83 83       	std	Z+3, r24	; 0x03
     4c6:	10 82       	st	Z, r1
     4c8:	12 82       	std	Z+2, r1	; 0x02
     4ca:	e5 eb       	ldi	r30, 0xB5	; 181
     4cc:	f4 e0       	ldi	r31, 0x04	; 4
     4ce:	80 81       	ld	r24, Z
     4d0:	20 e8       	ldi	r18, 0x80	; 128
     4d2:	82 9f       	mul	r24, r18
     4d4:	c0 01       	movw	r24, r0
     4d6:	11 24       	eor	r1, r1
     4d8:	92 81       	ldd	r25, Z+2	; 0x02
     4da:	9f 70       	andi	r25, 0x0F	; 15
     4dc:	89 2b       	or	r24, r25
     4de:	f8 94       	cli
     4e0:	2a 98       	cbi	0x05, 2	; 5
     4e2:	99 e8       	ldi	r25, 0x89	; 137
     4e4:	9e bd       	out	0x2e, r25	; 46
     4e6:	00 00       	nop
     4e8:	0d b4       	in	r0, 0x2d	; 45
     4ea:	07 fe       	sbrs	r0, 7
     4ec:	fd cf       	rjmp	.-6      	; 0x4e8 <setPower+0xa4>
     4ee:	8e bd       	out	0x2e, r24	; 46
     4f0:	00 00       	nop
     4f2:	0d b4       	in	r0, 0x2d	; 45
     4f4:	07 fe       	sbrs	r0, 7
     4f6:	fd cf       	rjmp	.-6      	; 0x4f2 <setPower+0xae>
     4f8:	2a 9a       	sbi	0x05, 2	; 5
     4fa:	78 94       	sei
     4fc:	8e b5       	in	r24, 0x2e	; 46
     4fe:	80 91 b8 04 	lds	r24, 0x04B8	; 0x8004b8 <paConfig+0x3>
     502:	f8 94       	cli
     504:	2a 98       	cbi	0x05, 2	; 5
     506:	9a ed       	ldi	r25, 0xDA	; 218
     508:	9e bd       	out	0x2e, r25	; 46
     50a:	00 00       	nop
     50c:	0d b4       	in	r0, 0x2d	; 45
     50e:	07 fe       	sbrs	r0, 7
     510:	fd cf       	rjmp	.-6      	; 0x50c <setPower+0xc8>
     512:	8e bd       	out	0x2e, r24	; 46
     514:	00 00       	nop
     516:	0d b4       	in	r0, 0x2d	; 45
     518:	07 fe       	sbrs	r0, 7
     51a:	fd cf       	rjmp	.-6      	; 0x516 <setPower+0xd2>
     51c:	2a 9a       	sbi	0x05, 2	; 5
     51e:	78 94       	sei
     520:	8e b5       	in	r24, 0x2e	; 46
     522:	08 95       	ret

00000524 <setPARamp>:
     524:	cf 93       	push	r28
     526:	20 e1       	ldi	r18, 0x10	; 16
     528:	82 9f       	mul	r24, r18
     52a:	c0 01       	movw	r24, r0
     52c:	11 24       	eor	r1, r1
     52e:	c6 2f       	mov	r28, r22
     530:	c8 2b       	or	r28, r24
     532:	82 e3       	ldi	r24, 0x32	; 50
     534:	0e 94 a9 01 	call	0x352	; 0x352 <setValidState>
     538:	f8 94       	cli
     53a:	2a 98       	cbi	0x05, 2	; 5
     53c:	8a e8       	ldi	r24, 0x8A	; 138
     53e:	8e bd       	out	0x2e, r24	; 46
     540:	00 00       	nop
     542:	0d b4       	in	r0, 0x2d	; 45
     544:	07 fe       	sbrs	r0, 7
     546:	fd cf       	rjmp	.-6      	; 0x542 <setPARamp+0x1e>
     548:	ce bd       	out	0x2e, r28	; 46
     54a:	00 00       	nop
     54c:	0d b4       	in	r0, 0x2d	; 45
     54e:	07 fe       	sbrs	r0, 7
     550:	fd cf       	rjmp	.-6      	; 0x54c <setPARamp+0x28>
     552:	2a 9a       	sbi	0x05, 2	; 5
     554:	78 94       	sei
     556:	8e b5       	in	r24, 0x2e	; 46
     558:	cf 91       	pop	r28
     55a:	08 95       	ret

0000055c <setLnaGain>:
     55c:	cf 93       	push	r28
     55e:	90 e2       	ldi	r25, 0x20	; 32
     560:	69 9f       	mul	r22, r25
     562:	b0 01       	movw	r22, r0
     564:	11 24       	eor	r1, r1
     566:	c8 2f       	mov	r28, r24
     568:	c6 2b       	or	r28, r22
     56a:	82 e3       	ldi	r24, 0x32	; 50
     56c:	0e 94 a9 01 	call	0x352	; 0x352 <setValidState>
     570:	f8 94       	cli
     572:	2a 98       	cbi	0x05, 2	; 5
     574:	8c e8       	ldi	r24, 0x8C	; 140
     576:	8e bd       	out	0x2e, r24	; 46
     578:	00 00       	nop
     57a:	0d b4       	in	r0, 0x2d	; 45
     57c:	07 fe       	sbrs	r0, 7
     57e:	fd cf       	rjmp	.-6      	; 0x57a <setLnaGain+0x1e>
     580:	ce bd       	out	0x2e, r28	; 46
     582:	00 00       	nop
     584:	0d b4       	in	r0, 0x2d	; 45
     586:	07 fe       	sbrs	r0, 7
     588:	fd cf       	rjmp	.-6      	; 0x584 <setLnaGain+0x28>
     58a:	2a 9a       	sbi	0x05, 2	; 5
     58c:	78 94       	sei
     58e:	8e b5       	in	r24, 0x2e	; 46
     590:	cf 91       	pop	r28
     592:	08 95       	ret

00000594 <setModemConfig>:
     594:	1f 93       	push	r17
     596:	cf 93       	push	r28
     598:	df 93       	push	r29
     59a:	cd b7       	in	r28, 0x3d	; 61
     59c:	de b7       	in	r29, 0x3e	; 62
     59e:	28 97       	sbiw	r28, 0x08	; 8
     5a0:	0f b6       	in	r0, 0x3f	; 63
     5a2:	f8 94       	cli
     5a4:	de bf       	out	0x3e, r29	; 62
     5a6:	0f be       	out	0x3f, r0	; 63
     5a8:	cd bf       	out	0x3d, r28	; 61
     5aa:	e2 2f       	mov	r30, r18
     5ac:	29 83       	std	Y+1, r18	; 0x01
     5ae:	3a 83       	std	Y+2, r19	; 0x02
     5b0:	14 2f       	mov	r17, r20
     5b2:	4b 83       	std	Y+3, r20	; 0x03
     5b4:	5c 83       	std	Y+4, r21	; 0x04
     5b6:	46 2f       	mov	r20, r22
     5b8:	6d 83       	std	Y+5, r22	; 0x05
     5ba:	7e 83       	std	Y+6, r23	; 0x06
     5bc:	8f 83       	std	Y+7, r24	; 0x07
     5be:	98 87       	std	Y+8, r25	; 0x08
     5c0:	83 2f       	mov	r24, r19
     5c2:	88 0f       	add	r24, r24
     5c4:	88 0f       	add	r24, r24
     5c6:	88 0f       	add	r24, r24
     5c8:	90 e4       	ldi	r25, 0x40	; 64
     5ca:	e9 9f       	mul	r30, r25
     5cc:	90 01       	movw	r18, r0
     5ce:	11 24       	eor	r1, r1
     5d0:	28 2b       	or	r18, r24
     5d2:	42 2b       	or	r20, r18
     5d4:	11 0f       	add	r17, r17
     5d6:	11 0f       	add	r17, r17
     5d8:	41 2b       	or	r20, r17
     5da:	15 2f       	mov	r17, r21
     5dc:	11 0f       	add	r17, r17
     5de:	14 2b       	or	r17, r20
     5e0:	82 e3       	ldi	r24, 0x32	; 50
     5e2:	0e 94 a9 01 	call	0x352	; 0x352 <setValidState>
     5e6:	f8 94       	cli
     5e8:	2a 98       	cbi	0x05, 2	; 5
     5ea:	8d e9       	ldi	r24, 0x9D	; 157
     5ec:	8e bd       	out	0x2e, r24	; 46
     5ee:	00 00       	nop
     5f0:	0d b4       	in	r0, 0x2d	; 45
     5f2:	07 fe       	sbrs	r0, 7
     5f4:	fd cf       	rjmp	.-6      	; 0x5f0 <setModemConfig+0x5c>
     5f6:	1e bd       	out	0x2e, r17	; 46
     5f8:	00 00       	nop
     5fa:	0d b4       	in	r0, 0x2d	; 45
     5fc:	07 fe       	sbrs	r0, 7
     5fe:	fd cf       	rjmp	.-6      	; 0x5fa <setModemConfig+0x66>
     600:	2a 9a       	sbi	0x05, 2	; 5
     602:	78 94       	sei
     604:	8e b5       	in	r24, 0x2e	; 46
     606:	45 e3       	ldi	r20, 0x35	; 53
     608:	4a 95       	dec	r20
     60a:	f1 f7       	brne	.-4      	; 0x608 <setModemConfig+0x74>
     60c:	00 00       	nop
     60e:	f8 94       	cli
     610:	2a 98       	cbi	0x05, 2	; 5
     612:	8d e1       	ldi	r24, 0x1D	; 29
     614:	8e bd       	out	0x2e, r24	; 46
     616:	00 00       	nop
     618:	0d b4       	in	r0, 0x2d	; 45
     61a:	07 fe       	sbrs	r0, 7
     61c:	fd cf       	rjmp	.-6      	; 0x618 <setModemConfig+0x84>
     61e:	8d ed       	ldi	r24, 0xDD	; 221
     620:	8e bd       	out	0x2e, r24	; 46
     622:	00 00       	nop
     624:	0d b4       	in	r0, 0x2d	; 45
     626:	07 fe       	sbrs	r0, 7
     628:	fd cf       	rjmp	.-6      	; 0x624 <setModemConfig+0x90>
     62a:	2a 9a       	sbi	0x05, 2	; 5
     62c:	78 94       	sei
     62e:	2e b5       	in	r18, 0x2e	; 46
     630:	91 e0       	ldi	r25, 0x01	; 1
     632:	80 e0       	ldi	r24, 0x00	; 0
     634:	12 13       	cpse	r17, r18
     636:	01 c0       	rjmp	.+2      	; 0x63a <setModemConfig+0xa6>
     638:	90 e0       	ldi	r25, 0x00	; 0
     63a:	29 2f       	mov	r18, r25
     63c:	38 2f       	mov	r19, r24
     63e:	8e 81       	ldd	r24, Y+6	; 0x06
     640:	40 e1       	ldi	r20, 0x10	; 16
     642:	84 9f       	mul	r24, r20
     644:	c0 01       	movw	r24, r0
     646:	11 24       	eor	r1, r1
     648:	9f 81       	ldd	r25, Y+7	; 0x07
     64a:	99 0f       	add	r25, r25
     64c:	99 0f       	add	r25, r25
     64e:	99 0f       	add	r25, r25
     650:	89 2b       	or	r24, r25
     652:	98 85       	ldd	r25, Y+8	; 0x08
     654:	99 0f       	add	r25, r25
     656:	99 0f       	add	r25, r25
     658:	89 2b       	or	r24, r25
     65a:	98 2f       	mov	r25, r24
     65c:	96 7f       	andi	r25, 0xF6	; 246
     65e:	f8 94       	cli
     660:	2a 98       	cbi	0x05, 2	; 5
     662:	8e e1       	ldi	r24, 0x1E	; 30
     664:	8e bd       	out	0x2e, r24	; 46
     666:	00 00       	nop
     668:	0d b4       	in	r0, 0x2d	; 45
     66a:	07 fe       	sbrs	r0, 7
     66c:	fd cf       	rjmp	.-6      	; 0x668 <setModemConfig+0xd4>
     66e:	8d ed       	ldi	r24, 0xDD	; 221
     670:	8e bd       	out	0x2e, r24	; 46
     672:	00 00       	nop
     674:	0d b4       	in	r0, 0x2d	; 45
     676:	07 fe       	sbrs	r0, 7
     678:	fd cf       	rjmp	.-6      	; 0x674 <setModemConfig+0xe0>
     67a:	2a 9a       	sbi	0x05, 2	; 5
     67c:	78 94       	sei
     67e:	8e b5       	in	r24, 0x2e	; 46
     680:	83 70       	andi	r24, 0x03	; 3
     682:	89 2b       	or	r24, r25
     684:	f8 94       	cli
     686:	2a 98       	cbi	0x05, 2	; 5
     688:	9e e9       	ldi	r25, 0x9E	; 158
     68a:	9e bd       	out	0x2e, r25	; 46
     68c:	00 00       	nop
     68e:	0d b4       	in	r0, 0x2d	; 45
     690:	07 fe       	sbrs	r0, 7
     692:	fd cf       	rjmp	.-6      	; 0x68e <setModemConfig+0xfa>
     694:	8e bd       	out	0x2e, r24	; 46
     696:	00 00       	nop
     698:	0d b4       	in	r0, 0x2d	; 45
     69a:	07 fe       	sbrs	r0, 7
     69c:	fd cf       	rjmp	.-6      	; 0x698 <setModemConfig+0x104>
     69e:	2a 9a       	sbi	0x05, 2	; 5
     6a0:	78 94       	sei
     6a2:	9e b5       	in	r25, 0x2e	; 46
     6a4:	f8 94       	cli
     6a6:	2a 98       	cbi	0x05, 2	; 5
     6a8:	9e e1       	ldi	r25, 0x1E	; 30
     6aa:	9e bd       	out	0x2e, r25	; 46
     6ac:	00 00       	nop
     6ae:	0d b4       	in	r0, 0x2d	; 45
     6b0:	07 fe       	sbrs	r0, 7
     6b2:	fd cf       	rjmp	.-6      	; 0x6ae <setModemConfig+0x11a>
     6b4:	9d ed       	ldi	r25, 0xDD	; 221
     6b6:	9e bd       	out	0x2e, r25	; 46
     6b8:	00 00       	nop
     6ba:	0d b4       	in	r0, 0x2d	; 45
     6bc:	07 fe       	sbrs	r0, 7
     6be:	fd cf       	rjmp	.-6      	; 0x6ba <setModemConfig+0x126>
     6c0:	2a 9a       	sbi	0x05, 2	; 5
     6c2:	78 94       	sei
     6c4:	9e b5       	in	r25, 0x2e	; 46
     6c6:	89 17       	cp	r24, r25
     6c8:	11 f0       	breq	.+4      	; 0x6ce <setModemConfig+0x13a>
     6ca:	2f 5f       	subi	r18, 0xFF	; 255
     6cc:	3f 4f       	sbci	r19, 0xFF	; 255
     6ce:	23 2b       	or	r18, r19
     6d0:	31 f0       	breq	.+12     	; 0x6de <setModemConfig+0x14a>
     6d2:	62 ed       	ldi	r22, 0xD2	; 210
     6d4:	71 e0       	ldi	r23, 0x01	; 1
     6d6:	8c e0       	ldi	r24, 0x0C	; 12
     6d8:	0e 94 87 00 	call	0x10e	; 0x10e <ErrorSetMsg>
     6dc:	03 c0       	rjmp	.+6      	; 0x6e4 <setModemConfig+0x150>
     6de:	80 e0       	ldi	r24, 0x00	; 0
     6e0:	0e 94 76 00 	call	0xec	; 0xec <ErrorSet>
     6e4:	28 96       	adiw	r28, 0x08	; 8
     6e6:	0f b6       	in	r0, 0x3f	; 63
     6e8:	f8 94       	cli
     6ea:	de bf       	out	0x3e, r29	; 62
     6ec:	0f be       	out	0x3f, r0	; 63
     6ee:	cd bf       	out	0x3d, r28	; 61
     6f0:	df 91       	pop	r29
     6f2:	cf 91       	pop	r28
     6f4:	1f 91       	pop	r17
     6f6:	08 95       	ret

000006f8 <setDetectionThreshold>:
     6f8:	cf 93       	push	r28
     6fa:	c8 2f       	mov	r28, r24
     6fc:	82 e3       	ldi	r24, 0x32	; 50
     6fe:	0e 94 a9 01 	call	0x352	; 0x352 <setValidState>
     702:	f8 94       	cli
     704:	2a 98       	cbi	0x05, 2	; 5
     706:	87 eb       	ldi	r24, 0xB7	; 183
     708:	8e bd       	out	0x2e, r24	; 46
     70a:	00 00       	nop
     70c:	0d b4       	in	r0, 0x2d	; 45
     70e:	07 fe       	sbrs	r0, 7
     710:	fd cf       	rjmp	.-6      	; 0x70c <setDetectionThreshold+0x14>
     712:	ce bd       	out	0x2e, r28	; 46
     714:	00 00       	nop
     716:	0d b4       	in	r0, 0x2d	; 45
     718:	07 fe       	sbrs	r0, 7
     71a:	fd cf       	rjmp	.-6      	; 0x716 <setDetectionThreshold+0x1e>
     71c:	2a 9a       	sbi	0x05, 2	; 5
     71e:	78 94       	sei
     720:	8e b5       	in	r24, 0x2e	; 46
     722:	cf 91       	pop	r28
     724:	08 95       	ret

00000726 <setDetectionOptimize>:
     726:	cf 93       	push	r28
     728:	c8 2f       	mov	r28, r24
     72a:	82 e3       	ldi	r24, 0x32	; 50
     72c:	0e 94 a9 01 	call	0x352	; 0x352 <setValidState>
     730:	f8 94       	cli
     732:	2a 98       	cbi	0x05, 2	; 5
     734:	81 eb       	ldi	r24, 0xB1	; 177
     736:	8e bd       	out	0x2e, r24	; 46
     738:	00 00       	nop
     73a:	0d b4       	in	r0, 0x2d	; 45
     73c:	07 fe       	sbrs	r0, 7
     73e:	fd cf       	rjmp	.-6      	; 0x73a <setDetectionOptimize+0x14>
     740:	ce bd       	out	0x2e, r28	; 46
     742:	00 00       	nop
     744:	0d b4       	in	r0, 0x2d	; 45
     746:	07 fe       	sbrs	r0, 7
     748:	fd cf       	rjmp	.-6      	; 0x744 <setDetectionOptimize+0x1e>
     74a:	2a 9a       	sbi	0x05, 2	; 5
     74c:	78 94       	sei
     74e:	8e b5       	in	r24, 0x2e	; 46
     750:	cf 91       	pop	r28
     752:	08 95       	ret

00000754 <setOcp>:
     754:	cf 93       	push	r28
     756:	20 e2       	ldi	r18, 0x20	; 32
     758:	82 9f       	mul	r24, r18
     75a:	c0 01       	movw	r24, r0
     75c:	11 24       	eor	r1, r1
     75e:	c6 2f       	mov	r28, r22
     760:	c8 2b       	or	r28, r24
     762:	82 e3       	ldi	r24, 0x32	; 50
     764:	0e 94 a9 01 	call	0x352	; 0x352 <setValidState>
     768:	f8 94       	cli
     76a:	2a 98       	cbi	0x05, 2	; 5
     76c:	8b e8       	ldi	r24, 0x8B	; 139
     76e:	8e bd       	out	0x2e, r24	; 46
     770:	00 00       	nop
     772:	0d b4       	in	r0, 0x2d	; 45
     774:	07 fe       	sbrs	r0, 7
     776:	fd cf       	rjmp	.-6      	; 0x772 <setOcp+0x1e>
     778:	ce bd       	out	0x2e, r28	; 46
     77a:	00 00       	nop
     77c:	0d b4       	in	r0, 0x2d	; 45
     77e:	07 fe       	sbrs	r0, 7
     780:	fd cf       	rjmp	.-6      	; 0x77c <setOcp+0x28>
     782:	2a 9a       	sbi	0x05, 2	; 5
     784:	78 94       	sei
     786:	8e b5       	in	r24, 0x2e	; 46
     788:	cf 91       	pop	r28
     78a:	08 95       	ret

0000078c <sx1272init>:
     78c:	8c ee       	ldi	r24, 0xEC	; 236
     78e:	91 e0       	ldi	r25, 0x01	; 1
     790:	0e 94 5a 0f 	call	0x1eb4	; 0x1eb4 <puts>
     794:	0e 94 ea 00 	call	0x1d4	; 0x1d4 <setLora>
     798:	ec eb       	ldi	r30, 0xBC	; 188
     79a:	f4 e0       	ldi	r31, 0x04	; 4
     79c:	10 82       	st	Z, r1
     79e:	91 e0       	ldi	r25, 0x01	; 1
     7a0:	39 2f       	mov	r19, r25
     7a2:	91 83       	std	Z+1, r25	; 0x01
     7a4:	12 82       	std	Z+2, r1	; 0x02
     7a6:	59 2f       	mov	r21, r25
     7a8:	93 83       	std	Z+3, r25	; 0x03
     7aa:	87 e0       	ldi	r24, 0x07	; 7
     7ac:	78 2f       	mov	r23, r24
     7ae:	85 83       	std	Z+5, r24	; 0x05
     7b0:	16 82       	std	Z+6, r1	; 0x06
     7b2:	97 83       	std	Z+7, r25	; 0x07
     7b4:	20 e0       	ldi	r18, 0x00	; 0
     7b6:	40 e0       	ldi	r20, 0x00	; 0
     7b8:	60 91 c0 04 	lds	r22, 0x04C0	; 0x8004c0 <modemConfig+0x4>
     7bc:	80 e0       	ldi	r24, 0x00	; 0
     7be:	0e 94 ca 02 	call	0x594	; 0x594 <setModemConfig>
     7c2:	60 ec       	ldi	r22, 0xC0	; 192
     7c4:	80 e0       	ldi	r24, 0x00	; 0
     7c6:	0e 94 ae 02 	call	0x55c	; 0x55c <setLnaGain>
     7ca:	60 e0       	ldi	r22, 0x00	; 0
     7cc:	70 e0       	ldi	r23, 0x00	; 0
     7ce:	89 ed       	ldi	r24, 0xD9	; 217
     7d0:	90 e0       	ldi	r25, 0x00	; 0
     7d2:	0e 94 d8 01 	call	0x3b0	; 0x3b0 <setFrequency>
     7d6:	8a e0       	ldi	r24, 0x0A	; 10
     7d8:	0e 94 7c 03 	call	0x6f8	; 0x6f8 <setDetectionThreshold>
     7dc:	83 e0       	ldi	r24, 0x03	; 3
     7de:	0e 94 93 03 	call	0x726	; 0x726 <setDetectionOptimize>
     7e2:	69 e0       	ldi	r22, 0x09	; 9
     7e4:	81 e0       	ldi	r24, 0x01	; 1
     7e6:	0e 94 92 02 	call	0x524	; 0x524 <setPARamp>
     7ea:	8f ef       	ldi	r24, 0xFF	; 255
     7ec:	9f ef       	ldi	r25, 0xFF	; 255
     7ee:	0e 94 22 02 	call	0x444	; 0x444 <setPower>
     7f2:	6b e0       	ldi	r22, 0x0B	; 11
     7f4:	81 e0       	ldi	r24, 0x01	; 1
     7f6:	0e 94 aa 03 	call	0x754	; 0x754 <setOcp>
     7fa:	8f e0       	ldi	r24, 0x0F	; 15
     7fc:	92 e0       	ldi	r25, 0x02	; 2
     7fe:	0e 94 5a 0f 	call	0x1eb4	; 0x1eb4 <puts>
     802:	81 e2       	ldi	r24, 0x21	; 33
     804:	92 e0       	ldi	r25, 0x02	; 2
     806:	0e 94 5a 0f 	call	0x1eb4	; 0x1eb4 <puts>
     80a:	84 e3       	ldi	r24, 0x34	; 52
     80c:	92 e0       	ldi	r25, 0x02	; 2
     80e:	0e 94 5a 0f 	call	0x1eb4	; 0x1eb4 <puts>
     812:	86 e4       	ldi	r24, 0x46	; 70
     814:	92 e0       	ldi	r25, 0x02	; 2
     816:	0e 94 5a 0f 	call	0x1eb4	; 0x1eb4 <puts>
     81a:	8d e5       	ldi	r24, 0x5D	; 93
     81c:	92 e0       	ldi	r25, 0x02	; 2
     81e:	0e 94 5a 0f 	call	0x1eb4	; 0x1eb4 <puts>
     822:	8e e6       	ldi	r24, 0x6E	; 110
     824:	92 e0       	ldi	r25, 0x02	; 2
     826:	0e 94 5a 0f 	call	0x1eb4	; 0x1eb4 <puts>
     82a:	83 e8       	ldi	r24, 0x83	; 131
     82c:	92 e0       	ldi	r25, 0x02	; 2
     82e:	0e 94 5a 0f 	call	0x1eb4	; 0x1eb4 <puts>
     832:	8c e9       	ldi	r24, 0x9C	; 156
     834:	92 e0       	ldi	r25, 0x02	; 2
     836:	0e 94 5a 0f 	call	0x1eb4	; 0x1eb4 <puts>
     83a:	8a ea       	ldi	r24, 0xAA	; 170
     83c:	92 e0       	ldi	r25, 0x02	; 2
     83e:	0e 94 5a 0f 	call	0x1eb4	; 0x1eb4 <puts>
     842:	8f eb       	ldi	r24, 0xBF	; 191
     844:	92 e0       	ldi	r25, 0x02	; 2
     846:	0e 94 5a 0f 	call	0x1eb4	; 0x1eb4 <puts>
     84a:	8a ed       	ldi	r24, 0xDA	; 218
     84c:	92 e0       	ldi	r25, 0x02	; 2
     84e:	0e 94 5a 0f 	call	0x1eb4	; 0x1eb4 <puts>
     852:	87 ee       	ldi	r24, 0xE7	; 231
     854:	92 e0       	ldi	r25, 0x02	; 2
     856:	0e 94 5a 0f 	call	0x1eb4	; 0x1eb4 <puts>
     85a:	08 95       	ret

0000085c <setMask>:
     85c:	f8 94       	cli
     85e:	2a 98       	cbi	0x05, 2	; 5
     860:	91 e1       	ldi	r25, 0x11	; 17
     862:	9e bd       	out	0x2e, r25	; 46
     864:	00 00       	nop
     866:	0d b4       	in	r0, 0x2d	; 45
     868:	07 fe       	sbrs	r0, 7
     86a:	fd cf       	rjmp	.-6      	; 0x866 <setMask+0xa>
     86c:	9d ed       	ldi	r25, 0xDD	; 221
     86e:	9e bd       	out	0x2e, r25	; 46
     870:	00 00       	nop
     872:	0d b4       	in	r0, 0x2d	; 45
     874:	07 fe       	sbrs	r0, 7
     876:	fd cf       	rjmp	.-6      	; 0x872 <setMask+0x16>
     878:	2a 9a       	sbi	0x05, 2	; 5
     87a:	78 94       	sei
     87c:	9e b5       	in	r25, 0x2e	; 46
     87e:	66 23       	and	r22, r22
     880:	59 f0       	breq	.+22     	; 0x898 <setMask+0x3c>
     882:	21 e0       	ldi	r18, 0x01	; 1
     884:	30 e0       	ldi	r19, 0x00	; 0
     886:	02 c0       	rjmp	.+4      	; 0x88c <setMask+0x30>
     888:	22 0f       	add	r18, r18
     88a:	33 1f       	adc	r19, r19
     88c:	8a 95       	dec	r24
     88e:	e2 f7       	brpl	.-8      	; 0x888 <setMask+0x2c>
     890:	92 2b       	or	r25, r18
     892:	90 93 a9 04 	sts	0x04A9, r25	; 0x8004a9 <irqFlagMask>
     896:	0b c0       	rjmp	.+22     	; 0x8ae <setMask+0x52>
     898:	21 e0       	ldi	r18, 0x01	; 1
     89a:	30 e0       	ldi	r19, 0x00	; 0
     89c:	02 c0       	rjmp	.+4      	; 0x8a2 <setMask+0x46>
     89e:	22 0f       	add	r18, r18
     8a0:	33 1f       	adc	r19, r19
     8a2:	8a 95       	dec	r24
     8a4:	e2 f7       	brpl	.-8      	; 0x89e <setMask+0x42>
     8a6:	20 95       	com	r18
     8a8:	92 23       	and	r25, r18
     8aa:	90 93 a9 04 	sts	0x04A9, r25	; 0x8004a9 <irqFlagMask>
     8ae:	82 e3       	ldi	r24, 0x32	; 50
     8b0:	0e 94 a9 01 	call	0x352	; 0x352 <setValidState>
     8b4:	80 91 a9 04 	lds	r24, 0x04A9	; 0x8004a9 <irqFlagMask>
     8b8:	f8 94       	cli
     8ba:	2a 98       	cbi	0x05, 2	; 5
     8bc:	91 e9       	ldi	r25, 0x91	; 145
     8be:	9e bd       	out	0x2e, r25	; 46
     8c0:	00 00       	nop
     8c2:	0d b4       	in	r0, 0x2d	; 45
     8c4:	07 fe       	sbrs	r0, 7
     8c6:	fd cf       	rjmp	.-6      	; 0x8c2 <setMask+0x66>
     8c8:	8e bd       	out	0x2e, r24	; 46
     8ca:	00 00       	nop
     8cc:	0d b4       	in	r0, 0x2d	; 45
     8ce:	07 fe       	sbrs	r0, 7
     8d0:	fd cf       	rjmp	.-6      	; 0x8cc <setMask+0x70>
     8d2:	2a 9a       	sbi	0x05, 2	; 5
     8d4:	78 94       	sei
     8d6:	8e b5       	in	r24, 0x2e	; 46
     8d8:	8f e8       	ldi	r24, 0x8F	; 143
     8da:	91 e0       	ldi	r25, 0x01	; 1
     8dc:	01 97       	sbiw	r24, 0x01	; 1
     8de:	f1 f7       	brne	.-4      	; 0x8dc <setMask+0x80>
     8e0:	00 c0       	rjmp	.+0      	; 0x8e2 <setMask+0x86>
     8e2:	00 00       	nop
     8e4:	f8 94       	cli
     8e6:	2a 98       	cbi	0x05, 2	; 5
     8e8:	81 e1       	ldi	r24, 0x11	; 17
     8ea:	8e bd       	out	0x2e, r24	; 46
     8ec:	00 00       	nop
     8ee:	0d b4       	in	r0, 0x2d	; 45
     8f0:	07 fe       	sbrs	r0, 7
     8f2:	fd cf       	rjmp	.-6      	; 0x8ee <setMask+0x92>
     8f4:	8d ed       	ldi	r24, 0xDD	; 221
     8f6:	8e bd       	out	0x2e, r24	; 46
     8f8:	00 00       	nop
     8fa:	0d b4       	in	r0, 0x2d	; 45
     8fc:	07 fe       	sbrs	r0, 7
     8fe:	fd cf       	rjmp	.-6      	; 0x8fa <setMask+0x9e>
     900:	2a 9a       	sbi	0x05, 2	; 5
     902:	78 94       	sei
     904:	8e b5       	in	r24, 0x2e	; 46
     906:	90 91 a9 04 	lds	r25, 0x04A9	; 0x8004a9 <irqFlagMask>
     90a:	98 17       	cp	r25, r24
     90c:	31 f0       	breq	.+12     	; 0x91a <__stack+0x1b>
     90e:	64 e0       	ldi	r22, 0x04	; 4
     910:	73 e0       	ldi	r23, 0x03	; 3
     912:	83 e0       	ldi	r24, 0x03	; 3
     914:	0e 94 87 00 	call	0x10e	; 0x10e <ErrorSetMsg>
     918:	08 95       	ret
     91a:	80 e0       	ldi	r24, 0x00	; 0
     91c:	0e 94 76 00 	call	0xec	; 0xec <ErrorSet>
     920:	08 95       	ret

00000922 <maskAll>:
     922:	8f ef       	ldi	r24, 0xFF	; 255
     924:	80 93 a9 04 	sts	0x04A9, r24	; 0x8004a9 <irqFlagMask>
     928:	f8 94       	cli
     92a:	2a 98       	cbi	0x05, 2	; 5
     92c:	81 e9       	ldi	r24, 0x91	; 145
     92e:	8e bd       	out	0x2e, r24	; 46
     930:	00 00       	nop
     932:	0d b4       	in	r0, 0x2d	; 45
     934:	07 fe       	sbrs	r0, 7
     936:	fd cf       	rjmp	.-6      	; 0x932 <maskAll+0x10>
     938:	8f ef       	ldi	r24, 0xFF	; 255
     93a:	8e bd       	out	0x2e, r24	; 46
     93c:	00 00       	nop
     93e:	0d b4       	in	r0, 0x2d	; 45
     940:	07 fe       	sbrs	r0, 7
     942:	fd cf       	rjmp	.-6      	; 0x93e <maskAll+0x1c>
     944:	2a 9a       	sbi	0x05, 2	; 5
     946:	78 94       	sei
     948:	8e b5       	in	r24, 0x2e	; 46
     94a:	8f e8       	ldi	r24, 0x8F	; 143
     94c:	91 e0       	ldi	r25, 0x01	; 1
     94e:	01 97       	sbiw	r24, 0x01	; 1
     950:	f1 f7       	brne	.-4      	; 0x94e <maskAll+0x2c>
     952:	00 c0       	rjmp	.+0      	; 0x954 <maskAll+0x32>
     954:	00 00       	nop
     956:	f8 94       	cli
     958:	2a 98       	cbi	0x05, 2	; 5
     95a:	81 e1       	ldi	r24, 0x11	; 17
     95c:	8e bd       	out	0x2e, r24	; 46
     95e:	00 00       	nop
     960:	0d b4       	in	r0, 0x2d	; 45
     962:	07 fe       	sbrs	r0, 7
     964:	fd cf       	rjmp	.-6      	; 0x960 <maskAll+0x3e>
     966:	8d ed       	ldi	r24, 0xDD	; 221
     968:	8e bd       	out	0x2e, r24	; 46
     96a:	00 00       	nop
     96c:	0d b4       	in	r0, 0x2d	; 45
     96e:	07 fe       	sbrs	r0, 7
     970:	fd cf       	rjmp	.-6      	; 0x96c <maskAll+0x4a>
     972:	2a 9a       	sbi	0x05, 2	; 5
     974:	78 94       	sei
     976:	8e b5       	in	r24, 0x2e	; 46
     978:	90 91 a9 04 	lds	r25, 0x04A9	; 0x8004a9 <irqFlagMask>
     97c:	98 17       	cp	r25, r24
     97e:	31 f0       	breq	.+12     	; 0x98c <maskAll+0x6a>
     980:	6a e3       	ldi	r22, 0x3A	; 58
     982:	73 e0       	ldi	r23, 0x03	; 3
     984:	83 e0       	ldi	r24, 0x03	; 3
     986:	0e 94 87 00 	call	0x10e	; 0x10e <ErrorSetMsg>
     98a:	08 95       	ret
     98c:	80 e0       	ldi	r24, 0x00	; 0
     98e:	0e 94 76 00 	call	0xec	; 0xec <ErrorSet>
     992:	08 95       	ret

00000994 <getFlag>:
     994:	f8 94       	cli
     996:	2a 98       	cbi	0x05, 2	; 5
     998:	92 e1       	ldi	r25, 0x12	; 18
     99a:	9e bd       	out	0x2e, r25	; 46
     99c:	00 00       	nop
     99e:	0d b4       	in	r0, 0x2d	; 45
     9a0:	07 fe       	sbrs	r0, 7
     9a2:	fd cf       	rjmp	.-6      	; 0x99e <getFlag+0xa>
     9a4:	9d ed       	ldi	r25, 0xDD	; 221
     9a6:	9e bd       	out	0x2e, r25	; 46
     9a8:	00 00       	nop
     9aa:	0d b4       	in	r0, 0x2d	; 45
     9ac:	07 fe       	sbrs	r0, 7
     9ae:	fd cf       	rjmp	.-6      	; 0x9aa <getFlag+0x16>
     9b0:	2a 9a       	sbi	0x05, 2	; 5
     9b2:	78 94       	sei
     9b4:	2e b5       	in	r18, 0x2e	; 46
     9b6:	20 93 a8 04 	sts	0x04A8, r18	; 0x8004a8 <irqFlags>
     9ba:	30 e0       	ldi	r19, 0x00	; 0
     9bc:	a9 01       	movw	r20, r18
     9be:	02 c0       	rjmp	.+4      	; 0x9c4 <getFlag+0x30>
     9c0:	55 95       	asr	r21
     9c2:	47 95       	ror	r20
     9c4:	8a 95       	dec	r24
     9c6:	e2 f7       	brpl	.-8      	; 0x9c0 <getFlag+0x2c>
     9c8:	ca 01       	movw	r24, r20
     9ca:	81 70       	andi	r24, 0x01	; 1
     9cc:	08 95       	ret

000009ce <clearFlag>:
     9ce:	21 e0       	ldi	r18, 0x01	; 1
     9d0:	30 e0       	ldi	r19, 0x00	; 0
     9d2:	08 2e       	mov	r0, r24
     9d4:	02 c0       	rjmp	.+4      	; 0x9da <clearFlag+0xc>
     9d6:	22 0f       	add	r18, r18
     9d8:	33 1f       	adc	r19, r19
     9da:	0a 94       	dec	r0
     9dc:	e2 f7       	brpl	.-8      	; 0x9d6 <clearFlag+0x8>
     9de:	f8 94       	cli
     9e0:	2a 98       	cbi	0x05, 2	; 5
     9e2:	92 e9       	ldi	r25, 0x92	; 146
     9e4:	9e bd       	out	0x2e, r25	; 46
     9e6:	00 00       	nop
     9e8:	0d b4       	in	r0, 0x2d	; 45
     9ea:	07 fe       	sbrs	r0, 7
     9ec:	fd cf       	rjmp	.-6      	; 0x9e8 <clearFlag+0x1a>
     9ee:	2e bd       	out	0x2e, r18	; 46
     9f0:	00 00       	nop
     9f2:	0d b4       	in	r0, 0x2d	; 45
     9f4:	07 fe       	sbrs	r0, 7
     9f6:	fd cf       	rjmp	.-6      	; 0x9f2 <clearFlag+0x24>
     9f8:	2a 9a       	sbi	0x05, 2	; 5
     9fa:	78 94       	sei
     9fc:	9e b5       	in	r25, 0x2e	; 46
     9fe:	95 e3       	ldi	r25, 0x35	; 53
     a00:	9a 95       	dec	r25
     a02:	f1 f7       	brne	.-4      	; 0xa00 <clearFlag+0x32>
     a04:	00 00       	nop
     a06:	f8 94       	cli
     a08:	2a 98       	cbi	0x05, 2	; 5
     a0a:	92 e1       	ldi	r25, 0x12	; 18
     a0c:	9e bd       	out	0x2e, r25	; 46
     a0e:	00 00       	nop
     a10:	0d b4       	in	r0, 0x2d	; 45
     a12:	07 fe       	sbrs	r0, 7
     a14:	fd cf       	rjmp	.-6      	; 0xa10 <clearFlag+0x42>
     a16:	9d ed       	ldi	r25, 0xDD	; 221
     a18:	9e bd       	out	0x2e, r25	; 46
     a1a:	00 00       	nop
     a1c:	0d b4       	in	r0, 0x2d	; 45
     a1e:	07 fe       	sbrs	r0, 7
     a20:	fd cf       	rjmp	.-6      	; 0xa1c <clearFlag+0x4e>
     a22:	2a 9a       	sbi	0x05, 2	; 5
     a24:	78 94       	sei
     a26:	2e b5       	in	r18, 0x2e	; 46
     a28:	20 93 a8 04 	sts	0x04A8, r18	; 0x8004a8 <irqFlags>
     a2c:	30 e0       	ldi	r19, 0x00	; 0
     a2e:	08 2e       	mov	r0, r24
     a30:	02 c0       	rjmp	.+4      	; 0xa36 <clearFlag+0x68>
     a32:	35 95       	asr	r19
     a34:	27 95       	ror	r18
     a36:	0a 94       	dec	r0
     a38:	e2 f7       	brpl	.-8      	; 0xa32 <clearFlag+0x64>
     a3a:	20 ff       	sbrs	r18, 0
     a3c:	04 c0       	rjmp	.+8      	; 0xa46 <clearFlag+0x78>
     a3e:	82 5e       	subi	r24, 0xE2	; 226
     a40:	0e 94 76 00 	call	0xec	; 0xec <ErrorSet>
     a44:	08 95       	ret
     a46:	80 e0       	ldi	r24, 0x00	; 0
     a48:	0e 94 76 00 	call	0xec	; 0xec <ErrorSet>
     a4c:	08 95       	ret

00000a4e <clearAll>:
     a4e:	f8 94       	cli
     a50:	2a 98       	cbi	0x05, 2	; 5
     a52:	82 e9       	ldi	r24, 0x92	; 146
     a54:	8e bd       	out	0x2e, r24	; 46
     a56:	00 00       	nop
     a58:	0d b4       	in	r0, 0x2d	; 45
     a5a:	07 fe       	sbrs	r0, 7
     a5c:	fd cf       	rjmp	.-6      	; 0xa58 <clearAll+0xa>
     a5e:	8f ef       	ldi	r24, 0xFF	; 255
     a60:	8e bd       	out	0x2e, r24	; 46
     a62:	00 00       	nop
     a64:	0d b4       	in	r0, 0x2d	; 45
     a66:	07 fe       	sbrs	r0, 7
     a68:	fd cf       	rjmp	.-6      	; 0xa64 <clearAll+0x16>
     a6a:	2a 9a       	sbi	0x05, 2	; 5
     a6c:	78 94       	sei
     a6e:	8e b5       	in	r24, 0x2e	; 46
     a70:	f8 94       	cli
     a72:	2a 98       	cbi	0x05, 2	; 5
     a74:	82 e1       	ldi	r24, 0x12	; 18
     a76:	8e bd       	out	0x2e, r24	; 46
     a78:	00 00       	nop
     a7a:	0d b4       	in	r0, 0x2d	; 45
     a7c:	07 fe       	sbrs	r0, 7
     a7e:	fd cf       	rjmp	.-6      	; 0xa7a <clearAll+0x2c>
     a80:	8d ed       	ldi	r24, 0xDD	; 221
     a82:	8e bd       	out	0x2e, r24	; 46
     a84:	00 00       	nop
     a86:	0d b4       	in	r0, 0x2d	; 45
     a88:	07 fe       	sbrs	r0, 7
     a8a:	fd cf       	rjmp	.-6      	; 0xa86 <clearAll+0x38>
     a8c:	2a 9a       	sbi	0x05, 2	; 5
     a8e:	78 94       	sei
     a90:	8e b5       	in	r24, 0x2e	; 46
     a92:	80 93 a8 04 	sts	0x04A8, r24	; 0x8004a8 <irqFlags>
     a96:	8f e8       	ldi	r24, 0x8F	; 143
     a98:	91 e0       	ldi	r25, 0x01	; 1
     a9a:	01 97       	sbiw	r24, 0x01	; 1
     a9c:	f1 f7       	brne	.-4      	; 0xa9a <clearAll+0x4c>
     a9e:	00 c0       	rjmp	.+0      	; 0xaa0 <clearAll+0x52>
     aa0:	00 00       	nop
     aa2:	80 91 a8 04 	lds	r24, 0x04A8	; 0x8004a8 <irqFlags>
     aa6:	88 23       	and	r24, r24
     aa8:	21 f0       	breq	.+8      	; 0xab2 <clearAll+0x64>
     aaa:	83 e0       	ldi	r24, 0x03	; 3
     aac:	0e 94 76 00 	call	0xec	; 0xec <ErrorSet>
     ab0:	08 95       	ret
     ab2:	80 e0       	ldi	r24, 0x00	; 0
     ab4:	0e 94 76 00 	call	0xec	; 0xec <ErrorSet>
     ab8:	08 95       	ret

00000aba <sync>:
     aba:	0e 94 5c 01 	call	0x2b8	; 0x2b8 <setValidFIFO>
     abe:	80 91 d3 04 	lds	r24, 0x04D3	; 0x8004d3 <er>
     ac2:	10 92 d3 04 	sts	0x04D3, r1	; 0x8004d3 <er>
     ac6:	88 23       	and	r24, r24
     ac8:	21 f0       	breq	.+8      	; 0xad2 <sync+0x18>
     aca:	85 e0       	ldi	r24, 0x05	; 5
     acc:	0e 94 76 00 	call	0xec	; 0xec <ErrorSet>
     ad0:	08 95       	ret
     ad2:	f8 94       	cli
     ad4:	2a 98       	cbi	0x05, 2	; 5
     ad6:	8d e0       	ldi	r24, 0x0D	; 13
     ad8:	8e bd       	out	0x2e, r24	; 46
     ada:	00 00       	nop
     adc:	0d b4       	in	r0, 0x2d	; 45
     ade:	07 fe       	sbrs	r0, 7
     ae0:	fd cf       	rjmp	.-6      	; 0xadc <sync+0x22>
     ae2:	8d ed       	ldi	r24, 0xDD	; 221
     ae4:	8e bd       	out	0x2e, r24	; 46
     ae6:	00 00       	nop
     ae8:	0d b4       	in	r0, 0x2d	; 45
     aea:	07 fe       	sbrs	r0, 7
     aec:	fd cf       	rjmp	.-6      	; 0xae8 <sync+0x2e>
     aee:	2a 9a       	sbi	0x05, 2	; 5
     af0:	78 94       	sei
     af2:	8e b5       	in	r24, 0x2e	; 46
     af4:	80 93 b4 04 	sts	0x04B4, r24	; 0x8004b4 <addrPtr>
     af8:	f8 94       	cli
     afa:	2a 98       	cbi	0x05, 2	; 5
     afc:	8e e0       	ldi	r24, 0x0E	; 14
     afe:	8e bd       	out	0x2e, r24	; 46
     b00:	00 00       	nop
     b02:	0d b4       	in	r0, 0x2d	; 45
     b04:	07 fe       	sbrs	r0, 7
     b06:	fd cf       	rjmp	.-6      	; 0xb02 <sync+0x48>
     b08:	8d ed       	ldi	r24, 0xDD	; 221
     b0a:	8e bd       	out	0x2e, r24	; 46
     b0c:	00 00       	nop
     b0e:	0d b4       	in	r0, 0x2d	; 45
     b10:	07 fe       	sbrs	r0, 7
     b12:	fd cf       	rjmp	.-6      	; 0xb0e <sync+0x54>
     b14:	2a 9a       	sbi	0x05, 2	; 5
     b16:	78 94       	sei
     b18:	8e b5       	in	r24, 0x2e	; 46
     b1a:	80 93 b3 04 	sts	0x04B3, r24	; 0x8004b3 <txBasePtr>
     b1e:	f8 94       	cli
     b20:	2a 98       	cbi	0x05, 2	; 5
     b22:	8e e0       	ldi	r24, 0x0E	; 14
     b24:	8e bd       	out	0x2e, r24	; 46
     b26:	00 00       	nop
     b28:	0d b4       	in	r0, 0x2d	; 45
     b2a:	07 fe       	sbrs	r0, 7
     b2c:	fd cf       	rjmp	.-6      	; 0xb28 <sync+0x6e>
     b2e:	8d ed       	ldi	r24, 0xDD	; 221
     b30:	8e bd       	out	0x2e, r24	; 46
     b32:	00 00       	nop
     b34:	0d b4       	in	r0, 0x2d	; 45
     b36:	07 fe       	sbrs	r0, 7
     b38:	fd cf       	rjmp	.-6      	; 0xb34 <sync+0x7a>
     b3a:	2a 9a       	sbi	0x05, 2	; 5
     b3c:	78 94       	sei
     b3e:	8e b5       	in	r24, 0x2e	; 46
     b40:	80 93 b2 04 	sts	0x04B2, r24	; 0x8004b2 <rxBasePtr>
     b44:	f8 94       	cli
     b46:	2a 98       	cbi	0x05, 2	; 5
     b48:	80 e1       	ldi	r24, 0x10	; 16
     b4a:	8e bd       	out	0x2e, r24	; 46
     b4c:	00 00       	nop
     b4e:	0d b4       	in	r0, 0x2d	; 45
     b50:	07 fe       	sbrs	r0, 7
     b52:	fd cf       	rjmp	.-6      	; 0xb4e <sync+0x94>
     b54:	8d ed       	ldi	r24, 0xDD	; 221
     b56:	8e bd       	out	0x2e, r24	; 46
     b58:	00 00       	nop
     b5a:	0d b4       	in	r0, 0x2d	; 45
     b5c:	07 fe       	sbrs	r0, 7
     b5e:	fd cf       	rjmp	.-6      	; 0xb5a <sync+0xa0>
     b60:	2a 9a       	sbi	0x05, 2	; 5
     b62:	78 94       	sei
     b64:	8e b5       	in	r24, 0x2e	; 46
     b66:	f8 94       	cli
     b68:	2a 98       	cbi	0x05, 2	; 5
     b6a:	83 e1       	ldi	r24, 0x13	; 19
     b6c:	8e bd       	out	0x2e, r24	; 46
     b6e:	00 00       	nop
     b70:	0d b4       	in	r0, 0x2d	; 45
     b72:	07 fe       	sbrs	r0, 7
     b74:	fd cf       	rjmp	.-6      	; 0xb70 <sync+0xb6>
     b76:	8d ed       	ldi	r24, 0xDD	; 221
     b78:	8e bd       	out	0x2e, r24	; 46
     b7a:	00 00       	nop
     b7c:	0d b4       	in	r0, 0x2d	; 45
     b7e:	07 fe       	sbrs	r0, 7
     b80:	fd cf       	rjmp	.-6      	; 0xb7c <sync+0xc2>
     b82:	2a 9a       	sbi	0x05, 2	; 5
     b84:	78 94       	sei
     b86:	8e b5       	in	r24, 0x2e	; 46
     b88:	f8 94       	cli
     b8a:	2a 98       	cbi	0x05, 2	; 5
     b8c:	85 e2       	ldi	r24, 0x25	; 37
     b8e:	8e bd       	out	0x2e, r24	; 46
     b90:	00 00       	nop
     b92:	0d b4       	in	r0, 0x2d	; 45
     b94:	07 fe       	sbrs	r0, 7
     b96:	fd cf       	rjmp	.-6      	; 0xb92 <sync+0xd8>
     b98:	8d ed       	ldi	r24, 0xDD	; 221
     b9a:	8e bd       	out	0x2e, r24	; 46
     b9c:	00 00       	nop
     b9e:	0d b4       	in	r0, 0x2d	; 45
     ba0:	07 fe       	sbrs	r0, 7
     ba2:	fd cf       	rjmp	.-6      	; 0xb9e <sync+0xe4>
     ba4:	2a 9a       	sbi	0x05, 2	; 5
     ba6:	78 94       	sei
     ba8:	8e b5       	in	r24, 0x2e	; 46
     baa:	10 92 b1 04 	sts	0x04B1, r1	; 0x8004b1 <validHeaderCnt+0x1>
     bae:	10 92 b0 04 	sts	0x04B0, r1	; 0x8004b0 <validHeaderCnt>
     bb2:	f8 94       	cli
     bb4:	2a 98       	cbi	0x05, 2	; 5
     bb6:	85 e1       	ldi	r24, 0x15	; 21
     bb8:	8e bd       	out	0x2e, r24	; 46
     bba:	00 00       	nop
     bbc:	0d b4       	in	r0, 0x2d	; 45
     bbe:	07 fe       	sbrs	r0, 7
     bc0:	fd cf       	rjmp	.-6      	; 0xbbc <sync+0x102>
     bc2:	8d ed       	ldi	r24, 0xDD	; 221
     bc4:	8e bd       	out	0x2e, r24	; 46
     bc6:	00 00       	nop
     bc8:	0d b4       	in	r0, 0x2d	; 45
     bca:	07 fe       	sbrs	r0, 7
     bcc:	fd cf       	rjmp	.-6      	; 0xbc8 <sync+0x10e>
     bce:	2a 9a       	sbi	0x05, 2	; 5
     bd0:	78 94       	sei
     bd2:	2e b5       	in	r18, 0x2e	; 46
     bd4:	80 91 b0 04 	lds	r24, 0x04B0	; 0x8004b0 <validHeaderCnt>
     bd8:	90 91 b1 04 	lds	r25, 0x04B1	; 0x8004b1 <validHeaderCnt+0x1>
     bdc:	82 2b       	or	r24, r18
     bde:	90 93 b1 04 	sts	0x04B1, r25	; 0x8004b1 <validHeaderCnt+0x1>
     be2:	80 93 b0 04 	sts	0x04B0, r24	; 0x8004b0 <validHeaderCnt>
     be6:	f8 94       	cli
     be8:	2a 98       	cbi	0x05, 2	; 5
     bea:	84 e1       	ldi	r24, 0x14	; 20
     bec:	8e bd       	out	0x2e, r24	; 46
     bee:	00 00       	nop
     bf0:	0d b4       	in	r0, 0x2d	; 45
     bf2:	07 fe       	sbrs	r0, 7
     bf4:	fd cf       	rjmp	.-6      	; 0xbf0 <sync+0x136>
     bf6:	8d ed       	ldi	r24, 0xDD	; 221
     bf8:	8e bd       	out	0x2e, r24	; 46
     bfa:	00 00       	nop
     bfc:	0d b4       	in	r0, 0x2d	; 45
     bfe:	07 fe       	sbrs	r0, 7
     c00:	fd cf       	rjmp	.-6      	; 0xbfc <sync+0x142>
     c02:	2a 9a       	sbi	0x05, 2	; 5
     c04:	78 94       	sei
     c06:	2e b5       	in	r18, 0x2e	; 46
     c08:	80 91 b0 04 	lds	r24, 0x04B0	; 0x8004b0 <validHeaderCnt>
     c0c:	90 91 b1 04 	lds	r25, 0x04B1	; 0x8004b1 <validHeaderCnt+0x1>
     c10:	92 2b       	or	r25, r18
     c12:	90 93 b1 04 	sts	0x04B1, r25	; 0x8004b1 <validHeaderCnt+0x1>
     c16:	80 93 b0 04 	sts	0x04B0, r24	; 0x8004b0 <validHeaderCnt>
     c1a:	10 92 af 04 	sts	0x04AF, r1	; 0x8004af <validPacketCnt+0x1>
     c1e:	10 92 ae 04 	sts	0x04AE, r1	; 0x8004ae <validPacketCnt>
     c22:	f8 94       	cli
     c24:	2a 98       	cbi	0x05, 2	; 5
     c26:	87 e1       	ldi	r24, 0x17	; 23
     c28:	8e bd       	out	0x2e, r24	; 46
     c2a:	00 00       	nop
     c2c:	0d b4       	in	r0, 0x2d	; 45
     c2e:	07 fe       	sbrs	r0, 7
     c30:	fd cf       	rjmp	.-6      	; 0xc2c <sync+0x172>
     c32:	8d ed       	ldi	r24, 0xDD	; 221
     c34:	8e bd       	out	0x2e, r24	; 46
     c36:	00 00       	nop
     c38:	0d b4       	in	r0, 0x2d	; 45
     c3a:	07 fe       	sbrs	r0, 7
     c3c:	fd cf       	rjmp	.-6      	; 0xc38 <sync+0x17e>
     c3e:	2a 9a       	sbi	0x05, 2	; 5
     c40:	78 94       	sei
     c42:	2e b5       	in	r18, 0x2e	; 46
     c44:	80 91 ae 04 	lds	r24, 0x04AE	; 0x8004ae <validPacketCnt>
     c48:	90 91 af 04 	lds	r25, 0x04AF	; 0x8004af <validPacketCnt+0x1>
     c4c:	82 2b       	or	r24, r18
     c4e:	90 93 af 04 	sts	0x04AF, r25	; 0x8004af <validPacketCnt+0x1>
     c52:	80 93 ae 04 	sts	0x04AE, r24	; 0x8004ae <validPacketCnt>
     c56:	f8 94       	cli
     c58:	2a 98       	cbi	0x05, 2	; 5
     c5a:	86 e1       	ldi	r24, 0x16	; 22
     c5c:	8e bd       	out	0x2e, r24	; 46
     c5e:	00 00       	nop
     c60:	0d b4       	in	r0, 0x2d	; 45
     c62:	07 fe       	sbrs	r0, 7
     c64:	fd cf       	rjmp	.-6      	; 0xc60 <sync+0x1a6>
     c66:	8d ed       	ldi	r24, 0xDD	; 221
     c68:	8e bd       	out	0x2e, r24	; 46
     c6a:	00 00       	nop
     c6c:	0d b4       	in	r0, 0x2d	; 45
     c6e:	07 fe       	sbrs	r0, 7
     c70:	fd cf       	rjmp	.-6      	; 0xc6c <sync+0x1b2>
     c72:	2a 9a       	sbi	0x05, 2	; 5
     c74:	78 94       	sei
     c76:	2e b5       	in	r18, 0x2e	; 46
     c78:	80 91 ae 04 	lds	r24, 0x04AE	; 0x8004ae <validPacketCnt>
     c7c:	90 91 af 04 	lds	r25, 0x04AF	; 0x8004af <validPacketCnt+0x1>
     c80:	92 2b       	or	r25, r18
     c82:	90 93 af 04 	sts	0x04AF, r25	; 0x8004af <validPacketCnt+0x1>
     c86:	80 93 ae 04 	sts	0x04AE, r24	; 0x8004ae <validPacketCnt>
     c8a:	10 92 ad 04 	sts	0x04AD, r1	; 0x8004ad <rxSymbTimeout+0x1>
     c8e:	10 92 ac 04 	sts	0x04AC, r1	; 0x8004ac <rxSymbTimeout>
     c92:	f8 94       	cli
     c94:	2a 98       	cbi	0x05, 2	; 5
     c96:	8e e1       	ldi	r24, 0x1E	; 30
     c98:	8e bd       	out	0x2e, r24	; 46
     c9a:	00 00       	nop
     c9c:	0d b4       	in	r0, 0x2d	; 45
     c9e:	07 fe       	sbrs	r0, 7
     ca0:	fd cf       	rjmp	.-6      	; 0xc9c <sync+0x1e2>
     ca2:	8d ed       	ldi	r24, 0xDD	; 221
     ca4:	8e bd       	out	0x2e, r24	; 46
     ca6:	00 00       	nop
     ca8:	0d b4       	in	r0, 0x2d	; 45
     caa:	07 fe       	sbrs	r0, 7
     cac:	fd cf       	rjmp	.-6      	; 0xca8 <sync+0x1ee>
     cae:	2a 9a       	sbi	0x05, 2	; 5
     cb0:	78 94       	sei
     cb2:	8e b5       	in	r24, 0x2e	; 46
     cb4:	f8 94       	cli
     cb6:	2a 98       	cbi	0x05, 2	; 5
     cb8:	8f e1       	ldi	r24, 0x1F	; 31
     cba:	8e bd       	out	0x2e, r24	; 46
     cbc:	00 00       	nop
     cbe:	0d b4       	in	r0, 0x2d	; 45
     cc0:	07 fe       	sbrs	r0, 7
     cc2:	fd cf       	rjmp	.-6      	; 0xcbe <sync+0x204>
     cc4:	8d ed       	ldi	r24, 0xDD	; 221
     cc6:	8e bd       	out	0x2e, r24	; 46
     cc8:	00 00       	nop
     cca:	0d b4       	in	r0, 0x2d	; 45
     ccc:	07 fe       	sbrs	r0, 7
     cce:	fd cf       	rjmp	.-6      	; 0xcca <sync+0x210>
     cd0:	2a 9a       	sbi	0x05, 2	; 5
     cd2:	78 94       	sei
     cd4:	2e b5       	in	r18, 0x2e	; 46
     cd6:	80 91 ac 04 	lds	r24, 0x04AC	; 0x8004ac <rxSymbTimeout>
     cda:	90 91 ad 04 	lds	r25, 0x04AD	; 0x8004ad <rxSymbTimeout+0x1>
     cde:	82 2b       	or	r24, r18
     ce0:	90 93 ad 04 	sts	0x04AD, r25	; 0x8004ad <rxSymbTimeout+0x1>
     ce4:	80 93 ac 04 	sts	0x04AC, r24	; 0x8004ac <rxSymbTimeout>
     ce8:	8f ef       	ldi	r24, 0xFF	; 255
     cea:	9f ef       	ldi	r25, 0xFF	; 255
     cec:	90 93 ab 04 	sts	0x04AB, r25	; 0x8004ab <txSymbTimeout+0x1>
     cf0:	80 93 aa 04 	sts	0x04AA, r24	; 0x8004aa <txSymbTimeout>
     cf4:	f8 94       	cli
     cf6:	2a 98       	cbi	0x05, 2	; 5
     cf8:	82 e2       	ldi	r24, 0x22	; 34
     cfa:	8e bd       	out	0x2e, r24	; 46
     cfc:	00 00       	nop
     cfe:	0d b4       	in	r0, 0x2d	; 45
     d00:	07 fe       	sbrs	r0, 7
     d02:	fd cf       	rjmp	.-6      	; 0xcfe <sync+0x244>
     d04:	8d ed       	ldi	r24, 0xDD	; 221
     d06:	8e bd       	out	0x2e, r24	; 46
     d08:	00 00       	nop
     d0a:	0d b4       	in	r0, 0x2d	; 45
     d0c:	07 fe       	sbrs	r0, 7
     d0e:	fd cf       	rjmp	.-6      	; 0xd0a <sync+0x250>
     d10:	2a 9a       	sbi	0x05, 2	; 5
     d12:	78 94       	sei
     d14:	8e b5       	in	r24, 0x2e	; 46
     d16:	f8 94       	cli
     d18:	2a 98       	cbi	0x05, 2	; 5
     d1a:	83 e2       	ldi	r24, 0x23	; 35
     d1c:	8e bd       	out	0x2e, r24	; 46
     d1e:	00 00       	nop
     d20:	0d b4       	in	r0, 0x2d	; 45
     d22:	07 fe       	sbrs	r0, 7
     d24:	fd cf       	rjmp	.-6      	; 0xd20 <sync+0x266>
     d26:	8d ed       	ldi	r24, 0xDD	; 221
     d28:	8e bd       	out	0x2e, r24	; 46
     d2a:	00 00       	nop
     d2c:	0d b4       	in	r0, 0x2d	; 45
     d2e:	07 fe       	sbrs	r0, 7
     d30:	fd cf       	rjmp	.-6      	; 0xd2c <sync+0x272>
     d32:	2a 9a       	sbi	0x05, 2	; 5
     d34:	78 94       	sei
     d36:	8e b5       	in	r24, 0x2e	; 46
     d38:	08 95       	ret

00000d3a <getFifoAddrPtr>:
     d3a:	cf 93       	push	r28
     d3c:	82 e3       	ldi	r24, 0x32	; 50
     d3e:	0e 94 a9 01 	call	0x352	; 0x352 <setValidState>
     d42:	80 91 d3 04 	lds	r24, 0x04D3	; 0x8004d3 <er>
     d46:	10 92 d3 04 	sts	0x04D3, r1	; 0x8004d3 <er>
     d4a:	88 23       	and	r24, r24
     d4c:	29 f0       	breq	.+10     	; 0xd58 <getFifoAddrPtr+0x1e>
     d4e:	85 e0       	ldi	r24, 0x05	; 5
     d50:	0e 94 76 00 	call	0xec	; 0xec <ErrorSet>
     d54:	c0 e0       	ldi	r28, 0x00	; 0
     d56:	14 c0       	rjmp	.+40     	; 0xd80 <getFifoAddrPtr+0x46>
     d58:	f8 94       	cli
     d5a:	2a 98       	cbi	0x05, 2	; 5
     d5c:	8d e0       	ldi	r24, 0x0D	; 13
     d5e:	8e bd       	out	0x2e, r24	; 46
     d60:	00 00       	nop
     d62:	0d b4       	in	r0, 0x2d	; 45
     d64:	07 fe       	sbrs	r0, 7
     d66:	fd cf       	rjmp	.-6      	; 0xd62 <getFifoAddrPtr+0x28>
     d68:	8d ed       	ldi	r24, 0xDD	; 221
     d6a:	8e bd       	out	0x2e, r24	; 46
     d6c:	00 00       	nop
     d6e:	0d b4       	in	r0, 0x2d	; 45
     d70:	07 fe       	sbrs	r0, 7
     d72:	fd cf       	rjmp	.-6      	; 0xd6e <getFifoAddrPtr+0x34>
     d74:	2a 9a       	sbi	0x05, 2	; 5
     d76:	78 94       	sei
     d78:	ce b5       	in	r28, 0x2e	; 46
     d7a:	80 e0       	ldi	r24, 0x00	; 0
     d7c:	0e 94 76 00 	call	0xec	; 0xec <ErrorSet>
     d80:	8c 2f       	mov	r24, r28
     d82:	cf 91       	pop	r28
     d84:	08 95       	ret

00000d86 <setFifoAddrPtr>:
     d86:	cf 93       	push	r28
     d88:	c8 2f       	mov	r28, r24
     d8a:	82 e3       	ldi	r24, 0x32	; 50
     d8c:	0e 94 a9 01 	call	0x352	; 0x352 <setValidState>
     d90:	80 91 d3 04 	lds	r24, 0x04D3	; 0x8004d3 <er>
     d94:	10 92 d3 04 	sts	0x04D3, r1	; 0x8004d3 <er>
     d98:	88 23       	and	r24, r24
     d9a:	21 f0       	breq	.+8      	; 0xda4 <setFifoAddrPtr+0x1e>
     d9c:	85 e0       	ldi	r24, 0x05	; 5
     d9e:	0e 94 76 00 	call	0xec	; 0xec <ErrorSet>
     da2:	2e c0       	rjmp	.+92     	; 0xe00 <setFifoAddrPtr+0x7a>
     da4:	c0 93 b4 04 	sts	0x04B4, r28	; 0x8004b4 <addrPtr>
     da8:	f8 94       	cli
     daa:	2a 98       	cbi	0x05, 2	; 5
     dac:	8d e8       	ldi	r24, 0x8D	; 141
     dae:	8e bd       	out	0x2e, r24	; 46
     db0:	00 00       	nop
     db2:	0d b4       	in	r0, 0x2d	; 45
     db4:	07 fe       	sbrs	r0, 7
     db6:	fd cf       	rjmp	.-6      	; 0xdb2 <setFifoAddrPtr+0x2c>
     db8:	ce bd       	out	0x2e, r28	; 46
     dba:	00 00       	nop
     dbc:	0d b4       	in	r0, 0x2d	; 45
     dbe:	07 fe       	sbrs	r0, 7
     dc0:	fd cf       	rjmp	.-6      	; 0xdbc <setFifoAddrPtr+0x36>
     dc2:	2a 9a       	sbi	0x05, 2	; 5
     dc4:	78 94       	sei
     dc6:	8e b5       	in	r24, 0x2e	; 46
     dc8:	f8 94       	cli
     dca:	2a 98       	cbi	0x05, 2	; 5
     dcc:	8d e0       	ldi	r24, 0x0D	; 13
     dce:	8e bd       	out	0x2e, r24	; 46
     dd0:	00 00       	nop
     dd2:	0d b4       	in	r0, 0x2d	; 45
     dd4:	07 fe       	sbrs	r0, 7
     dd6:	fd cf       	rjmp	.-6      	; 0xdd2 <setFifoAddrPtr+0x4c>
     dd8:	8d ed       	ldi	r24, 0xDD	; 221
     dda:	8e bd       	out	0x2e, r24	; 46
     ddc:	00 00       	nop
     dde:	0d b4       	in	r0, 0x2d	; 45
     de0:	07 fe       	sbrs	r0, 7
     de2:	fd cf       	rjmp	.-6      	; 0xdde <setFifoAddrPtr+0x58>
     de4:	2a 9a       	sbi	0x05, 2	; 5
     de6:	78 94       	sei
     de8:	8e b5       	in	r24, 0x2e	; 46
     dea:	90 91 b4 04 	lds	r25, 0x04B4	; 0x8004b4 <addrPtr>
     dee:	98 17       	cp	r25, r24
     df0:	21 f0       	breq	.+8      	; 0xdfa <setFifoAddrPtr+0x74>
     df2:	83 e0       	ldi	r24, 0x03	; 3
     df4:	0e 94 76 00 	call	0xec	; 0xec <ErrorSet>
     df8:	03 c0       	rjmp	.+6      	; 0xe00 <setFifoAddrPtr+0x7a>
     dfa:	80 e0       	ldi	r24, 0x00	; 0
     dfc:	0e 94 76 00 	call	0xec	; 0xec <ErrorSet>
     e00:	cf 91       	pop	r28
     e02:	08 95       	ret

00000e04 <setFifoTxBaseAddr>:
     e04:	cf 93       	push	r28
     e06:	c8 2f       	mov	r28, r24
     e08:	82 e3       	ldi	r24, 0x32	; 50
     e0a:	0e 94 a9 01 	call	0x352	; 0x352 <setValidState>
     e0e:	80 91 d3 04 	lds	r24, 0x04D3	; 0x8004d3 <er>
     e12:	10 92 d3 04 	sts	0x04D3, r1	; 0x8004d3 <er>
     e16:	88 23       	and	r24, r24
     e18:	21 f0       	breq	.+8      	; 0xe22 <setFifoTxBaseAddr+0x1e>
     e1a:	85 e0       	ldi	r24, 0x05	; 5
     e1c:	0e 94 76 00 	call	0xec	; 0xec <ErrorSet>
     e20:	2e c0       	rjmp	.+92     	; 0xe7e <setFifoTxBaseAddr+0x7a>
     e22:	c0 93 b3 04 	sts	0x04B3, r28	; 0x8004b3 <txBasePtr>
     e26:	f8 94       	cli
     e28:	2a 98       	cbi	0x05, 2	; 5
     e2a:	8e e8       	ldi	r24, 0x8E	; 142
     e2c:	8e bd       	out	0x2e, r24	; 46
     e2e:	00 00       	nop
     e30:	0d b4       	in	r0, 0x2d	; 45
     e32:	07 fe       	sbrs	r0, 7
     e34:	fd cf       	rjmp	.-6      	; 0xe30 <setFifoTxBaseAddr+0x2c>
     e36:	ce bd       	out	0x2e, r28	; 46
     e38:	00 00       	nop
     e3a:	0d b4       	in	r0, 0x2d	; 45
     e3c:	07 fe       	sbrs	r0, 7
     e3e:	fd cf       	rjmp	.-6      	; 0xe3a <setFifoTxBaseAddr+0x36>
     e40:	2a 9a       	sbi	0x05, 2	; 5
     e42:	78 94       	sei
     e44:	8e b5       	in	r24, 0x2e	; 46
     e46:	f8 94       	cli
     e48:	2a 98       	cbi	0x05, 2	; 5
     e4a:	8e e0       	ldi	r24, 0x0E	; 14
     e4c:	8e bd       	out	0x2e, r24	; 46
     e4e:	00 00       	nop
     e50:	0d b4       	in	r0, 0x2d	; 45
     e52:	07 fe       	sbrs	r0, 7
     e54:	fd cf       	rjmp	.-6      	; 0xe50 <setFifoTxBaseAddr+0x4c>
     e56:	8d ed       	ldi	r24, 0xDD	; 221
     e58:	8e bd       	out	0x2e, r24	; 46
     e5a:	00 00       	nop
     e5c:	0d b4       	in	r0, 0x2d	; 45
     e5e:	07 fe       	sbrs	r0, 7
     e60:	fd cf       	rjmp	.-6      	; 0xe5c <setFifoTxBaseAddr+0x58>
     e62:	2a 9a       	sbi	0x05, 2	; 5
     e64:	78 94       	sei
     e66:	8e b5       	in	r24, 0x2e	; 46
     e68:	90 91 b3 04 	lds	r25, 0x04B3	; 0x8004b3 <txBasePtr>
     e6c:	98 17       	cp	r25, r24
     e6e:	21 f0       	breq	.+8      	; 0xe78 <setFifoTxBaseAddr+0x74>
     e70:	83 e0       	ldi	r24, 0x03	; 3
     e72:	0e 94 76 00 	call	0xec	; 0xec <ErrorSet>
     e76:	03 c0       	rjmp	.+6      	; 0xe7e <setFifoTxBaseAddr+0x7a>
     e78:	80 e0       	ldi	r24, 0x00	; 0
     e7a:	0e 94 76 00 	call	0xec	; 0xec <ErrorSet>
     e7e:	cf 91       	pop	r28
     e80:	08 95       	ret

00000e82 <setFifoRxBaseAddr>:
     e82:	cf 93       	push	r28
     e84:	c8 2f       	mov	r28, r24
     e86:	82 e3       	ldi	r24, 0x32	; 50
     e88:	0e 94 a9 01 	call	0x352	; 0x352 <setValidState>
     e8c:	80 91 d3 04 	lds	r24, 0x04D3	; 0x8004d3 <er>
     e90:	10 92 d3 04 	sts	0x04D3, r1	; 0x8004d3 <er>
     e94:	88 23       	and	r24, r24
     e96:	21 f0       	breq	.+8      	; 0xea0 <setFifoRxBaseAddr+0x1e>
     e98:	85 e0       	ldi	r24, 0x05	; 5
     e9a:	0e 94 76 00 	call	0xec	; 0xec <ErrorSet>
     e9e:	2e c0       	rjmp	.+92     	; 0xefc <setFifoRxBaseAddr+0x7a>
     ea0:	c0 93 b2 04 	sts	0x04B2, r28	; 0x8004b2 <rxBasePtr>
     ea4:	f8 94       	cli
     ea6:	2a 98       	cbi	0x05, 2	; 5
     ea8:	8f e8       	ldi	r24, 0x8F	; 143
     eaa:	8e bd       	out	0x2e, r24	; 46
     eac:	00 00       	nop
     eae:	0d b4       	in	r0, 0x2d	; 45
     eb0:	07 fe       	sbrs	r0, 7
     eb2:	fd cf       	rjmp	.-6      	; 0xeae <setFifoRxBaseAddr+0x2c>
     eb4:	ce bd       	out	0x2e, r28	; 46
     eb6:	00 00       	nop
     eb8:	0d b4       	in	r0, 0x2d	; 45
     eba:	07 fe       	sbrs	r0, 7
     ebc:	fd cf       	rjmp	.-6      	; 0xeb8 <setFifoRxBaseAddr+0x36>
     ebe:	2a 9a       	sbi	0x05, 2	; 5
     ec0:	78 94       	sei
     ec2:	8e b5       	in	r24, 0x2e	; 46
     ec4:	f8 94       	cli
     ec6:	2a 98       	cbi	0x05, 2	; 5
     ec8:	8f e0       	ldi	r24, 0x0F	; 15
     eca:	8e bd       	out	0x2e, r24	; 46
     ecc:	00 00       	nop
     ece:	0d b4       	in	r0, 0x2d	; 45
     ed0:	07 fe       	sbrs	r0, 7
     ed2:	fd cf       	rjmp	.-6      	; 0xece <setFifoRxBaseAddr+0x4c>
     ed4:	8d ed       	ldi	r24, 0xDD	; 221
     ed6:	8e bd       	out	0x2e, r24	; 46
     ed8:	00 00       	nop
     eda:	0d b4       	in	r0, 0x2d	; 45
     edc:	07 fe       	sbrs	r0, 7
     ede:	fd cf       	rjmp	.-6      	; 0xeda <setFifoRxBaseAddr+0x58>
     ee0:	2a 9a       	sbi	0x05, 2	; 5
     ee2:	78 94       	sei
     ee4:	8e b5       	in	r24, 0x2e	; 46
     ee6:	90 91 b2 04 	lds	r25, 0x04B2	; 0x8004b2 <rxBasePtr>
     eea:	98 17       	cp	r25, r24
     eec:	21 f0       	breq	.+8      	; 0xef6 <setFifoRxBaseAddr+0x74>
     eee:	83 e0       	ldi	r24, 0x03	; 3
     ef0:	0e 94 76 00 	call	0xec	; 0xec <ErrorSet>
     ef4:	03 c0       	rjmp	.+6      	; 0xefc <setFifoRxBaseAddr+0x7a>
     ef6:	80 e0       	ldi	r24, 0x00	; 0
     ef8:	0e 94 76 00 	call	0xec	; 0xec <ErrorSet>
     efc:	cf 91       	pop	r28
     efe:	08 95       	ret

00000f00 <setSymbTimeout>:
     f00:	cf 93       	push	r28
     f02:	df 93       	push	r29
     f04:	d8 2f       	mov	r29, r24
     f06:	c9 2f       	mov	r28, r25
     f08:	82 e3       	ldi	r24, 0x32	; 50
     f0a:	0e 94 a9 01 	call	0x352	; 0x352 <setValidState>
     f0e:	80 91 d3 04 	lds	r24, 0x04D3	; 0x8004d3 <er>
     f12:	10 92 d3 04 	sts	0x04D3, r1	; 0x8004d3 <er>
     f16:	88 23       	and	r24, r24
     f18:	21 f0       	breq	.+8      	; 0xf22 <setSymbTimeout+0x22>
     f1a:	85 e0       	ldi	r24, 0x05	; 5
     f1c:	0e 94 76 00 	call	0xec	; 0xec <ErrorSet>
     f20:	38 c0       	rjmp	.+112    	; 0xf92 <setSymbTimeout+0x92>
     f22:	9c 2f       	mov	r25, r28
     f24:	93 70       	andi	r25, 0x03	; 3
     f26:	f8 94       	cli
     f28:	2a 98       	cbi	0x05, 2	; 5
     f2a:	8e e1       	ldi	r24, 0x1E	; 30
     f2c:	8e bd       	out	0x2e, r24	; 46
     f2e:	00 00       	nop
     f30:	0d b4       	in	r0, 0x2d	; 45
     f32:	07 fe       	sbrs	r0, 7
     f34:	fd cf       	rjmp	.-6      	; 0xf30 <setSymbTimeout+0x30>
     f36:	8d ed       	ldi	r24, 0xDD	; 221
     f38:	8e bd       	out	0x2e, r24	; 46
     f3a:	00 00       	nop
     f3c:	0d b4       	in	r0, 0x2d	; 45
     f3e:	07 fe       	sbrs	r0, 7
     f40:	fd cf       	rjmp	.-6      	; 0xf3c <setSymbTimeout+0x3c>
     f42:	2a 9a       	sbi	0x05, 2	; 5
     f44:	78 94       	sei
     f46:	8e b5       	in	r24, 0x2e	; 46
     f48:	8c 7f       	andi	r24, 0xFC	; 252
     f4a:	98 2b       	or	r25, r24
     f4c:	f8 94       	cli
     f4e:	2a 98       	cbi	0x05, 2	; 5
     f50:	8e e9       	ldi	r24, 0x9E	; 158
     f52:	8e bd       	out	0x2e, r24	; 46
     f54:	00 00       	nop
     f56:	0d b4       	in	r0, 0x2d	; 45
     f58:	07 fe       	sbrs	r0, 7
     f5a:	fd cf       	rjmp	.-6      	; 0xf56 <setSymbTimeout+0x56>
     f5c:	9e bd       	out	0x2e, r25	; 46
     f5e:	00 00       	nop
     f60:	0d b4       	in	r0, 0x2d	; 45
     f62:	07 fe       	sbrs	r0, 7
     f64:	fd cf       	rjmp	.-6      	; 0xf60 <setSymbTimeout+0x60>
     f66:	2a 9a       	sbi	0x05, 2	; 5
     f68:	78 94       	sei
     f6a:	8e b5       	in	r24, 0x2e	; 46
     f6c:	f8 94       	cli
     f6e:	2a 98       	cbi	0x05, 2	; 5
     f70:	8f e9       	ldi	r24, 0x9F	; 159
     f72:	8e bd       	out	0x2e, r24	; 46
     f74:	00 00       	nop
     f76:	0d b4       	in	r0, 0x2d	; 45
     f78:	07 fe       	sbrs	r0, 7
     f7a:	fd cf       	rjmp	.-6      	; 0xf76 <setSymbTimeout+0x76>
     f7c:	de bd       	out	0x2e, r29	; 46
     f7e:	00 00       	nop
     f80:	0d b4       	in	r0, 0x2d	; 45
     f82:	07 fe       	sbrs	r0, 7
     f84:	fd cf       	rjmp	.-6      	; 0xf80 <setSymbTimeout+0x80>
     f86:	2a 9a       	sbi	0x05, 2	; 5
     f88:	78 94       	sei
     f8a:	8e b5       	in	r24, 0x2e	; 46
     f8c:	80 e0       	ldi	r24, 0x00	; 0
     f8e:	0e 94 76 00 	call	0xec	; 0xec <ErrorSet>
     f92:	df 91       	pop	r29
     f94:	cf 91       	pop	r28
     f96:	08 95       	ret

00000f98 <setPreambleLength>:
     f98:	cf 93       	push	r28
     f9a:	df 93       	push	r29
     f9c:	d8 2f       	mov	r29, r24
     f9e:	c9 2f       	mov	r28, r25
     fa0:	82 e3       	ldi	r24, 0x32	; 50
     fa2:	0e 94 a9 01 	call	0x352	; 0x352 <setValidState>
     fa6:	80 91 d3 04 	lds	r24, 0x04D3	; 0x8004d3 <er>
     faa:	10 92 d3 04 	sts	0x04D3, r1	; 0x8004d3 <er>
     fae:	88 23       	and	r24, r24
     fb0:	21 f0       	breq	.+8      	; 0xfba <setPreambleLength+0x22>
     fb2:	8e e0       	ldi	r24, 0x0E	; 14
     fb4:	0e 94 76 00 	call	0xec	; 0xec <ErrorSet>
     fb8:	23 c0       	rjmp	.+70     	; 0x1000 <setPreambleLength+0x68>
     fba:	f8 94       	cli
     fbc:	2a 98       	cbi	0x05, 2	; 5
     fbe:	81 ea       	ldi	r24, 0xA1	; 161
     fc0:	8e bd       	out	0x2e, r24	; 46
     fc2:	00 00       	nop
     fc4:	0d b4       	in	r0, 0x2d	; 45
     fc6:	07 fe       	sbrs	r0, 7
     fc8:	fd cf       	rjmp	.-6      	; 0xfc4 <setPreambleLength+0x2c>
     fca:	de bd       	out	0x2e, r29	; 46
     fcc:	00 00       	nop
     fce:	0d b4       	in	r0, 0x2d	; 45
     fd0:	07 fe       	sbrs	r0, 7
     fd2:	fd cf       	rjmp	.-6      	; 0xfce <setPreambleLength+0x36>
     fd4:	2a 9a       	sbi	0x05, 2	; 5
     fd6:	78 94       	sei
     fd8:	8e b5       	in	r24, 0x2e	; 46
     fda:	f8 94       	cli
     fdc:	2a 98       	cbi	0x05, 2	; 5
     fde:	80 ea       	ldi	r24, 0xA0	; 160
     fe0:	8e bd       	out	0x2e, r24	; 46
     fe2:	00 00       	nop
     fe4:	0d b4       	in	r0, 0x2d	; 45
     fe6:	07 fe       	sbrs	r0, 7
     fe8:	fd cf       	rjmp	.-6      	; 0xfe4 <setPreambleLength+0x4c>
     fea:	ce bd       	out	0x2e, r28	; 46
     fec:	00 00       	nop
     fee:	0d b4       	in	r0, 0x2d	; 45
     ff0:	07 fe       	sbrs	r0, 7
     ff2:	fd cf       	rjmp	.-6      	; 0xfee <setPreambleLength+0x56>
     ff4:	2a 9a       	sbi	0x05, 2	; 5
     ff6:	78 94       	sei
     ff8:	8e b5       	in	r24, 0x2e	; 46
     ffa:	80 e0       	ldi	r24, 0x00	; 0
     ffc:	0e 94 76 00 	call	0xec	; 0xec <ErrorSet>
    1000:	df 91       	pop	r29
    1002:	cf 91       	pop	r28
    1004:	08 95       	ret

00001006 <setPayloadLength>:
    1006:	cf 93       	push	r28
    1008:	c8 2f       	mov	r28, r24
    100a:	0e 94 5c 01 	call	0x2b8	; 0x2b8 <setValidFIFO>
    100e:	80 91 d3 04 	lds	r24, 0x04D3	; 0x8004d3 <er>
    1012:	10 92 d3 04 	sts	0x04D3, r1	; 0x8004d3 <er>
    1016:	88 23       	and	r24, r24
    1018:	21 f0       	breq	.+8      	; 0x1022 <setPayloadLength+0x1c>
    101a:	85 e0       	ldi	r24, 0x05	; 5
    101c:	0e 94 76 00 	call	0xec	; 0xec <ErrorSet>
    1020:	13 c0       	rjmp	.+38     	; 0x1048 <setPayloadLength+0x42>
    1022:	f8 94       	cli
    1024:	2a 98       	cbi	0x05, 2	; 5
    1026:	82 ea       	ldi	r24, 0xA2	; 162
    1028:	8e bd       	out	0x2e, r24	; 46
    102a:	00 00       	nop
    102c:	0d b4       	in	r0, 0x2d	; 45
    102e:	07 fe       	sbrs	r0, 7
    1030:	fd cf       	rjmp	.-6      	; 0x102c <setPayloadLength+0x26>
    1032:	ce bd       	out	0x2e, r28	; 46
    1034:	00 00       	nop
    1036:	0d b4       	in	r0, 0x2d	; 45
    1038:	07 fe       	sbrs	r0, 7
    103a:	fd cf       	rjmp	.-6      	; 0x1036 <setPayloadLength+0x30>
    103c:	2a 9a       	sbi	0x05, 2	; 5
    103e:	78 94       	sei
    1040:	8e b5       	in	r24, 0x2e	; 46
    1042:	80 e0       	ldi	r24, 0x00	; 0
    1044:	0e 94 76 00 	call	0xec	; 0xec <ErrorSet>
    1048:	cf 91       	pop	r28
    104a:	08 95       	ret

0000104c <getPayloadMaxLength>:
    104c:	cf 93       	push	r28
    104e:	0e 94 5c 01 	call	0x2b8	; 0x2b8 <setValidFIFO>
    1052:	80 91 d3 04 	lds	r24, 0x04D3	; 0x8004d3 <er>
    1056:	10 92 d3 04 	sts	0x04D3, r1	; 0x8004d3 <er>
    105a:	88 23       	and	r24, r24
    105c:	29 f0       	breq	.+10     	; 0x1068 <getPayloadMaxLength+0x1c>
    105e:	85 e0       	ldi	r24, 0x05	; 5
    1060:	0e 94 76 00 	call	0xec	; 0xec <ErrorSet>
    1064:	c0 e0       	ldi	r28, 0x00	; 0
    1066:	14 c0       	rjmp	.+40     	; 0x1090 <getPayloadMaxLength+0x44>
    1068:	f8 94       	cli
    106a:	2a 98       	cbi	0x05, 2	; 5
    106c:	83 e2       	ldi	r24, 0x23	; 35
    106e:	8e bd       	out	0x2e, r24	; 46
    1070:	00 00       	nop
    1072:	0d b4       	in	r0, 0x2d	; 45
    1074:	07 fe       	sbrs	r0, 7
    1076:	fd cf       	rjmp	.-6      	; 0x1072 <getPayloadMaxLength+0x26>
    1078:	8d ed       	ldi	r24, 0xDD	; 221
    107a:	8e bd       	out	0x2e, r24	; 46
    107c:	00 00       	nop
    107e:	0d b4       	in	r0, 0x2d	; 45
    1080:	07 fe       	sbrs	r0, 7
    1082:	fd cf       	rjmp	.-6      	; 0x107e <getPayloadMaxLength+0x32>
    1084:	2a 9a       	sbi	0x05, 2	; 5
    1086:	78 94       	sei
    1088:	ce b5       	in	r28, 0x2e	; 46
    108a:	80 e0       	ldi	r24, 0x00	; 0
    108c:	0e 94 76 00 	call	0xec	; 0xec <ErrorSet>
    1090:	8c 2f       	mov	r24, r28
    1092:	cf 91       	pop	r28
    1094:	08 95       	ret

00001096 <millis>:
    1096:	f8 94       	cli
    1098:	60 91 d4 04 	lds	r22, 0x04D4	; 0x8004d4 <timer0_millis>
    109c:	70 91 d5 04 	lds	r23, 0x04D5	; 0x8004d5 <timer0_millis+0x1>
    10a0:	80 91 d6 04 	lds	r24, 0x04D6	; 0x8004d6 <timer0_millis+0x2>
    10a4:	90 91 d7 04 	lds	r25, 0x04D7	; 0x8004d7 <timer0_millis+0x3>
    10a8:	78 94       	sei
    10aa:	08 95       	ret

000010ac <__vector_14>:
    10ac:	1f 92       	push	r1
    10ae:	0f 92       	push	r0
    10b0:	0f b6       	in	r0, 0x3f	; 63
    10b2:	0f 92       	push	r0
    10b4:	11 24       	eor	r1, r1
    10b6:	0f 93       	push	r16
    10b8:	1f 93       	push	r17
    10ba:	2f 93       	push	r18
    10bc:	3f 93       	push	r19
    10be:	4f 93       	push	r20
    10c0:	5f 93       	push	r21
    10c2:	6f 93       	push	r22
    10c4:	7f 93       	push	r23
    10c6:	8f 93       	push	r24
    10c8:	9f 93       	push	r25
    10ca:	af 93       	push	r26
    10cc:	bf 93       	push	r27
    10ce:	ef 93       	push	r30
    10d0:	ff 93       	push	r31
    10d2:	80 91 d4 04 	lds	r24, 0x04D4	; 0x8004d4 <timer0_millis>
    10d6:	90 91 d5 04 	lds	r25, 0x04D5	; 0x8004d5 <timer0_millis+0x1>
    10da:	a0 91 d6 04 	lds	r26, 0x04D6	; 0x8004d6 <timer0_millis+0x2>
    10de:	b0 91 d7 04 	lds	r27, 0x04D7	; 0x8004d7 <timer0_millis+0x3>
    10e2:	01 96       	adiw	r24, 0x01	; 1
    10e4:	a1 1d       	adc	r26, r1
    10e6:	b1 1d       	adc	r27, r1
    10e8:	80 93 d4 04 	sts	0x04D4, r24	; 0x8004d4 <timer0_millis>
    10ec:	90 93 d5 04 	sts	0x04D5, r25	; 0x8004d5 <timer0_millis+0x1>
    10f0:	a0 93 d6 04 	sts	0x04D6, r26	; 0x8004d6 <timer0_millis+0x2>
    10f4:	b0 93 d7 04 	sts	0x04D7, r27	; 0x8004d7 <timer0_millis+0x3>
    10f8:	0e 94 4b 08 	call	0x1096	; 0x1096 <millis>
    10fc:	00 91 a4 04 	lds	r16, 0x04A4	; 0x8004a4 <temp>
    1100:	10 91 a5 04 	lds	r17, 0x04A5	; 0x8004a5 <temp+0x1>
    1104:	20 91 a6 04 	lds	r18, 0x04A6	; 0x8004a6 <temp+0x2>
    1108:	30 91 a7 04 	lds	r19, 0x04A7	; 0x8004a7 <temp+0x3>
    110c:	dc 01       	movw	r26, r24
    110e:	cb 01       	movw	r24, r22
    1110:	80 1b       	sub	r24, r16
    1112:	91 0b       	sbc	r25, r17
    1114:	a2 0b       	sbc	r26, r18
    1116:	b3 0b       	sbc	r27, r19
    1118:	81 36       	cpi	r24, 0x61	; 97
    111a:	9a 4e       	sbci	r25, 0xEA	; 234
    111c:	a1 05       	cpc	r26, r1
    111e:	b1 05       	cpc	r27, r1
    1120:	e8 f0       	brcs	.+58     	; 0x115c <__vector_14+0xb0>
    1122:	0e 94 4b 08 	call	0x1096	; 0x1096 <millis>
    1126:	60 93 a4 04 	sts	0x04A4, r22	; 0x8004a4 <temp>
    112a:	70 93 a5 04 	sts	0x04A5, r23	; 0x8004a5 <temp+0x1>
    112e:	80 93 a6 04 	sts	0x04A6, r24	; 0x8004a6 <temp+0x2>
    1132:	90 93 a7 04 	sts	0x04A7, r25	; 0x8004a7 <temp+0x3>
    1136:	80 91 dc 04 	lds	r24, 0x04DC	; 0x8004dc <timer0_minutes>
    113a:	90 91 dd 04 	lds	r25, 0x04DD	; 0x8004dd <timer0_minutes+0x1>
    113e:	a0 91 de 04 	lds	r26, 0x04DE	; 0x8004de <timer0_minutes+0x2>
    1142:	b0 91 df 04 	lds	r27, 0x04DF	; 0x8004df <timer0_minutes+0x3>
    1146:	01 96       	adiw	r24, 0x01	; 1
    1148:	a1 1d       	adc	r26, r1
    114a:	b1 1d       	adc	r27, r1
    114c:	80 93 dc 04 	sts	0x04DC, r24	; 0x8004dc <timer0_minutes>
    1150:	90 93 dd 04 	sts	0x04DD, r25	; 0x8004dd <timer0_minutes+0x1>
    1154:	a0 93 de 04 	sts	0x04DE, r26	; 0x8004de <timer0_minutes+0x2>
    1158:	b0 93 df 04 	sts	0x04DF, r27	; 0x8004df <timer0_minutes+0x3>
    115c:	ff 91       	pop	r31
    115e:	ef 91       	pop	r30
    1160:	bf 91       	pop	r27
    1162:	af 91       	pop	r26
    1164:	9f 91       	pop	r25
    1166:	8f 91       	pop	r24
    1168:	7f 91       	pop	r23
    116a:	6f 91       	pop	r22
    116c:	5f 91       	pop	r21
    116e:	4f 91       	pop	r20
    1170:	3f 91       	pop	r19
    1172:	2f 91       	pop	r18
    1174:	1f 91       	pop	r17
    1176:	0f 91       	pop	r16
    1178:	0f 90       	pop	r0
    117a:	0f be       	out	0x3f, r0	; 63
    117c:	0f 90       	pop	r0
    117e:	1f 90       	pop	r1
    1180:	18 95       	reti

00001182 <millis_init>:
    1182:	e4 e6       	ldi	r30, 0x64	; 100
    1184:	f0 e0       	ldi	r31, 0x00	; 0
    1186:	80 81       	ld	r24, Z
    1188:	8f 7d       	andi	r24, 0xDF	; 223
    118a:	80 83       	st	Z, r24
    118c:	f8 94       	cli
    118e:	14 bc       	out	0x24, r1	; 36
    1190:	83 e0       	ldi	r24, 0x03	; 3
    1192:	85 bd       	out	0x25, r24	; 37
    1194:	16 bc       	out	0x26, r1	; 38
    1196:	82 e0       	ldi	r24, 0x02	; 2
    1198:	80 93 6e 00 	sts	0x006E, r24	; 0x80006e <__TEXT_REGION_LENGTH__+0x7e006e>
    119c:	9a ef       	ldi	r25, 0xFA	; 250
    119e:	97 bd       	out	0x27, r25	; 39
    11a0:	85 bb       	out	0x15, r24	; 21
    11a2:	10 92 a4 04 	sts	0x04A4, r1	; 0x8004a4 <temp>
    11a6:	10 92 a5 04 	sts	0x04A5, r1	; 0x8004a5 <temp+0x1>
    11aa:	10 92 a6 04 	sts	0x04A6, r1	; 0x8004a6 <temp+0x2>
    11ae:	10 92 a7 04 	sts	0x04A7, r1	; 0x8004a7 <temp+0x3>
    11b2:	78 94       	sei
    11b4:	08 95       	ret

000011b6 <txInit>:
    11b6:	4f 92       	push	r4
    11b8:	5f 92       	push	r5
    11ba:	6f 92       	push	r6
    11bc:	7f 92       	push	r7
    11be:	8f 92       	push	r8
    11c0:	9f 92       	push	r9
    11c2:	af 92       	push	r10
    11c4:	bf 92       	push	r11
    11c6:	cf 92       	push	r12
    11c8:	ef 92       	push	r14
    11ca:	ff 92       	push	r15
    11cc:	0f 93       	push	r16
    11ce:	1f 93       	push	r17
    11d0:	cf 93       	push	r28
    11d2:	df 93       	push	r29
    11d4:	cd b7       	in	r28, 0x3d	; 61
    11d6:	de b7       	in	r29, 0x3e	; 62
    11d8:	28 97       	sbiw	r28, 0x08	; 8
    11da:	0f b6       	in	r0, 0x3f	; 63
    11dc:	f8 94       	cli
    11de:	de bf       	out	0x3e, r29	; 62
    11e0:	0f be       	out	0x3f, r0	; 63
    11e2:	cd bf       	out	0x3d, r28	; 61
    11e4:	29 83       	std	Y+1, r18	; 0x01
    11e6:	3a 83       	std	Y+2, r19	; 0x02
    11e8:	4b 83       	std	Y+3, r20	; 0x03
    11ea:	5c 83       	std	Y+4, r21	; 0x04
    11ec:	8f 83       	std	Y+7, r24	; 0x07
    11ee:	98 87       	std	Y+8, r25	; 0x08
    11f0:	27 01       	movw	r4, r14
    11f2:	38 01       	movw	r6, r16
    11f4:	17 2f       	mov	r17, r23
    11f6:	02 2f       	mov	r16, r18
    11f8:	82 e3       	ldi	r24, 0x32	; 50
    11fa:	0e 94 a9 01 	call	0x352	; 0x352 <setValidState>
    11fe:	1d 30       	cpi	r17, 0x0D	; 13
    1200:	08 f0       	brcs	.+2      	; 0x1204 <txInit+0x4e>
    1202:	4d c0       	rjmp	.+154    	; 0x129e <txInit+0xe8>
    1204:	16 30       	cpi	r17, 0x06	; 6
    1206:	08 f4       	brcc	.+2      	; 0x120a <txInit+0x54>
    1208:	4d c0       	rjmp	.+154    	; 0x12a4 <txInit+0xee>
    120a:	01 11       	cpse	r16, r1
    120c:	05 c0       	rjmp	.+10     	; 0x1218 <txInit+0x62>
    120e:	85 ef       	ldi	r24, 0xF5	; 245
    1210:	81 0f       	add	r24, r17
    1212:	82 30       	cpi	r24, 0x02	; 2
    1214:	68 f4       	brcc	.+26     	; 0x1230 <txInit+0x7a>
    1216:	08 c0       	rjmp	.+16     	; 0x1228 <txInit+0x72>
    1218:	01 30       	cpi	r16, 0x01	; 1
    121a:	51 f4       	brne	.+20     	; 0x1230 <txInit+0x7a>
    121c:	1c 30       	cpi	r17, 0x0C	; 12
    121e:	41 f4       	brne	.+16     	; 0x1230 <txInit+0x7a>
    1220:	03 c0       	rjmp	.+6      	; 0x1228 <txInit+0x72>
    1222:	1c e0       	ldi	r17, 0x0C	; 12
    1224:	01 c0       	rjmp	.+2      	; 0x1228 <txInit+0x72>
    1226:	1c e0       	ldi	r17, 0x0C	; 12
    1228:	81 e0       	ldi	r24, 0x01	; 1
    122a:	8d 83       	std	Y+5, r24	; 0x05
    122c:	02 c0       	rjmp	.+4      	; 0x1232 <txInit+0x7c>
    122e:	16 e0       	ldi	r17, 0x06	; 6
    1230:	1d 82       	std	Y+5, r1	; 0x05
    1232:	29 81       	ldd	r18, Y+1	; 0x01
    1234:	3a 81       	ldd	r19, Y+2	; 0x02
    1236:	4b 81       	ldd	r20, Y+3	; 0x03
    1238:	5c 81       	ldd	r21, Y+4	; 0x04
    123a:	6d 81       	ldd	r22, Y+5	; 0x05
    123c:	71 2f       	mov	r23, r17
    123e:	8f 81       	ldd	r24, Y+7	; 0x07
    1240:	98 85       	ldd	r25, Y+8	; 0x08
    1242:	0e 94 ca 02 	call	0x594	; 0x594 <setModemConfig>
    1246:	80 91 d3 04 	lds	r24, 0x04D3	; 0x8004d3 <er>
    124a:	10 92 d3 04 	sts	0x04D3, r1	; 0x8004d3 <er>
    124e:	88 23       	and	r24, r24
    1250:	21 f0       	breq	.+8      	; 0x125a <txInit+0xa4>
    1252:	8f e0       	ldi	r24, 0x0F	; 15
    1254:	0e 94 76 00 	call	0xec	; 0xec <ErrorSet>
    1258:	2e c0       	rjmp	.+92     	; 0x12b6 <txInit+0x100>
    125a:	c3 01       	movw	r24, r6
    125c:	b2 01       	movw	r22, r4
    125e:	0e 94 d8 01 	call	0x3b0	; 0x3b0 <setFrequency>
    1262:	8c 2d       	mov	r24, r12
    1264:	90 e0       	ldi	r25, 0x00	; 0
    1266:	0e 94 22 02 	call	0x444	; 0x444 <setPower>
    126a:	c5 01       	movw	r24, r10
    126c:	0e 94 cc 07 	call	0xf98	; 0xf98 <setPreambleLength>
    1270:	90 92 ab 04 	sts	0x04AB, r9	; 0x8004ab <txSymbTimeout+0x1>
    1274:	80 92 aa 04 	sts	0x04AA, r8	; 0x8004aa <txSymbTimeout>
    1278:	16 30       	cpi	r17, 0x06	; 6
    127a:	39 f4       	brne	.+14     	; 0x128a <txInit+0xd4>
    127c:	80 e0       	ldi	r24, 0x00	; 0
    127e:	0e 94 93 03 	call	0x726	; 0x726 <setDetectionOptimize>
    1282:	8c e0       	ldi	r24, 0x0C	; 12
    1284:	0e 94 7c 03 	call	0x6f8	; 0x6f8 <setDetectionThreshold>
    1288:	06 c0       	rjmp	.+12     	; 0x1296 <txInit+0xe0>
    128a:	80 e0       	ldi	r24, 0x00	; 0
    128c:	0e 94 93 03 	call	0x726	; 0x726 <setDetectionOptimize>
    1290:	8a e0       	ldi	r24, 0x0A	; 10
    1292:	0e 94 7c 03 	call	0x6f8	; 0x6f8 <setDetectionThreshold>
    1296:	80 e0       	ldi	r24, 0x00	; 0
    1298:	0e 94 76 00 	call	0xec	; 0xec <ErrorSet>
    129c:	0c c0       	rjmp	.+24     	; 0x12b6 <txInit+0x100>
    129e:	01 11       	cpse	r16, r1
    12a0:	05 c0       	rjmp	.+10     	; 0x12ac <txInit+0xf6>
    12a2:	bf cf       	rjmp	.-130    	; 0x1222 <txInit+0x6c>
    12a4:	00 23       	and	r16, r16
    12a6:	19 f2       	breq	.-122    	; 0x122e <txInit+0x78>
    12a8:	16 e0       	ldi	r17, 0x06	; 6
    12aa:	b6 cf       	rjmp	.-148    	; 0x1218 <txInit+0x62>
    12ac:	01 30       	cpi	r16, 0x01	; 1
    12ae:	09 f4       	brne	.+2      	; 0x12b2 <txInit+0xfc>
    12b0:	ba cf       	rjmp	.-140    	; 0x1226 <txInit+0x70>
    12b2:	1c e0       	ldi	r17, 0x0C	; 12
    12b4:	bd cf       	rjmp	.-134    	; 0x1230 <txInit+0x7a>
    12b6:	28 96       	adiw	r28, 0x08	; 8
    12b8:	0f b6       	in	r0, 0x3f	; 63
    12ba:	f8 94       	cli
    12bc:	de bf       	out	0x3e, r29	; 62
    12be:	0f be       	out	0x3f, r0	; 63
    12c0:	cd bf       	out	0x3d, r28	; 61
    12c2:	df 91       	pop	r29
    12c4:	cf 91       	pop	r28
    12c6:	1f 91       	pop	r17
    12c8:	0f 91       	pop	r16
    12ca:	ff 90       	pop	r15
    12cc:	ef 90       	pop	r14
    12ce:	cf 90       	pop	r12
    12d0:	bf 90       	pop	r11
    12d2:	af 90       	pop	r10
    12d4:	9f 90       	pop	r9
    12d6:	8f 90       	pop	r8
    12d8:	7f 90       	pop	r7
    12da:	6f 90       	pop	r6
    12dc:	5f 90       	pop	r5
    12de:	4f 90       	pop	r4
    12e0:	08 95       	ret

000012e2 <rxInit>:
    12e2:	ef 92       	push	r14
    12e4:	ff 92       	push	r15
    12e6:	0f 93       	push	r16
    12e8:	1f 93       	push	r17
    12ea:	cf 93       	push	r28
    12ec:	df 93       	push	r29
    12ee:	cd b7       	in	r28, 0x3d	; 61
    12f0:	de b7       	in	r29, 0x3e	; 62
    12f2:	28 97       	sbiw	r28, 0x08	; 8
    12f4:	0f b6       	in	r0, 0x3f	; 63
    12f6:	f8 94       	cli
    12f8:	de bf       	out	0x3e, r29	; 62
    12fa:	0f be       	out	0x3f, r0	; 63
    12fc:	cd bf       	out	0x3d, r28	; 61
    12fe:	29 83       	std	Y+1, r18	; 0x01
    1300:	3a 83       	std	Y+2, r19	; 0x02
    1302:	4b 83       	std	Y+3, r20	; 0x03
    1304:	5c 83       	std	Y+4, r21	; 0x04
    1306:	8f 83       	std	Y+7, r24	; 0x07
    1308:	98 87       	std	Y+8, r25	; 0x08
    130a:	7d 30       	cpi	r23, 0x0D	; 13
    130c:	98 f5       	brcc	.+102    	; 0x1374 <rxInit+0x92>
    130e:	76 30       	cpi	r23, 0x06	; 6
    1310:	a0 f1       	brcs	.+104    	; 0x137a <rxInit+0x98>
    1312:	21 11       	cpse	r18, r1
    1314:	05 c0       	rjmp	.+10     	; 0x1320 <rxInit+0x3e>
    1316:	85 ef       	ldi	r24, 0xF5	; 245
    1318:	87 0f       	add	r24, r23
    131a:	82 30       	cpi	r24, 0x02	; 2
    131c:	68 f4       	brcc	.+26     	; 0x1338 <rxInit+0x56>
    131e:	08 c0       	rjmp	.+16     	; 0x1330 <rxInit+0x4e>
    1320:	21 30       	cpi	r18, 0x01	; 1
    1322:	51 f4       	brne	.+20     	; 0x1338 <rxInit+0x56>
    1324:	7c 30       	cpi	r23, 0x0C	; 12
    1326:	41 f4       	brne	.+16     	; 0x1338 <rxInit+0x56>
    1328:	03 c0       	rjmp	.+6      	; 0x1330 <rxInit+0x4e>
    132a:	7c e0       	ldi	r23, 0x0C	; 12
    132c:	01 c0       	rjmp	.+2      	; 0x1330 <rxInit+0x4e>
    132e:	7c e0       	ldi	r23, 0x0C	; 12
    1330:	81 e0       	ldi	r24, 0x01	; 1
    1332:	8d 83       	std	Y+5, r24	; 0x05
    1334:	02 c0       	rjmp	.+4      	; 0x133a <rxInit+0x58>
    1336:	76 e0       	ldi	r23, 0x06	; 6
    1338:	1d 82       	std	Y+5, r1	; 0x05
    133a:	29 81       	ldd	r18, Y+1	; 0x01
    133c:	3a 81       	ldd	r19, Y+2	; 0x02
    133e:	4b 81       	ldd	r20, Y+3	; 0x03
    1340:	5c 81       	ldd	r21, Y+4	; 0x04
    1342:	6d 81       	ldd	r22, Y+5	; 0x05
    1344:	8f 81       	ldd	r24, Y+7	; 0x07
    1346:	98 85       	ldd	r25, Y+8	; 0x08
    1348:	0e 94 ca 02 	call	0x594	; 0x594 <setModemConfig>
    134c:	80 91 d3 04 	lds	r24, 0x04D3	; 0x8004d3 <er>
    1350:	10 92 d3 04 	sts	0x04D3, r1	; 0x8004d3 <er>
    1354:	88 23       	and	r24, r24
    1356:	21 f0       	breq	.+8      	; 0x1360 <rxInit+0x7e>
    1358:	8f e0       	ldi	r24, 0x0F	; 15
    135a:	0e 94 76 00 	call	0xec	; 0xec <ErrorSet>
    135e:	15 c0       	rjmp	.+42     	; 0x138a <rxInit+0xa8>
    1360:	c8 01       	movw	r24, r16
    1362:	0e 94 cc 07 	call	0xf98	; 0xf98 <setPreambleLength>
    1366:	c7 01       	movw	r24, r14
    1368:	0e 94 80 07 	call	0xf00	; 0xf00 <setSymbTimeout>
    136c:	80 e0       	ldi	r24, 0x00	; 0
    136e:	0e 94 76 00 	call	0xec	; 0xec <ErrorSet>
    1372:	0b c0       	rjmp	.+22     	; 0x138a <rxInit+0xa8>
    1374:	21 11       	cpse	r18, r1
    1376:	05 c0       	rjmp	.+10     	; 0x1382 <rxInit+0xa0>
    1378:	d8 cf       	rjmp	.-80     	; 0x132a <rxInit+0x48>
    137a:	22 23       	and	r18, r18
    137c:	e1 f2       	breq	.-72     	; 0x1336 <rxInit+0x54>
    137e:	76 e0       	ldi	r23, 0x06	; 6
    1380:	cf cf       	rjmp	.-98     	; 0x1320 <rxInit+0x3e>
    1382:	21 30       	cpi	r18, 0x01	; 1
    1384:	a1 f2       	breq	.-88     	; 0x132e <rxInit+0x4c>
    1386:	7c e0       	ldi	r23, 0x0C	; 12
    1388:	d7 cf       	rjmp	.-82     	; 0x1338 <rxInit+0x56>
    138a:	28 96       	adiw	r28, 0x08	; 8
    138c:	0f b6       	in	r0, 0x3f	; 63
    138e:	f8 94       	cli
    1390:	de bf       	out	0x3e, r29	; 62
    1392:	0f be       	out	0x3f, r0	; 63
    1394:	cd bf       	out	0x3d, r28	; 61
    1396:	df 91       	pop	r29
    1398:	cf 91       	pop	r28
    139a:	1f 91       	pop	r17
    139c:	0f 91       	pop	r16
    139e:	ff 90       	pop	r15
    13a0:	ef 90       	pop	r14
    13a2:	08 95       	ret

000013a4 <Tx>:
    13a4:	0e 94 27 05 	call	0xa4e	; 0xa4e <clearAll>
    13a8:	0e 94 91 04 	call	0x922	; 0x922 <maskAll>
    13ac:	60 e0       	ldi	r22, 0x00	; 0
    13ae:	83 e0       	ldi	r24, 0x03	; 3
    13b0:	0e 94 2e 04 	call	0x85c	; 0x85c <setMask>
    13b4:	f8 94       	cli
    13b6:	2a 98       	cbi	0x05, 2	; 5
    13b8:	80 ec       	ldi	r24, 0xC0	; 192
    13ba:	8e bd       	out	0x2e, r24	; 46
    13bc:	00 00       	nop
    13be:	0d b4       	in	r0, 0x2d	; 45
    13c0:	07 fe       	sbrs	r0, 7
    13c2:	fd cf       	rjmp	.-6      	; 0x13be <Tx+0x1a>
    13c4:	80 e4       	ldi	r24, 0x40	; 64
    13c6:	8e bd       	out	0x2e, r24	; 46
    13c8:	00 00       	nop
    13ca:	0d b4       	in	r0, 0x2d	; 45
    13cc:	07 fe       	sbrs	r0, 7
    13ce:	fd cf       	rjmp	.-6      	; 0x13ca <Tx+0x26>
    13d0:	2a 9a       	sbi	0x05, 2	; 5
    13d2:	78 94       	sei
    13d4:	8e b5       	in	r24, 0x2e	; 46
    13d6:	83 e8       	ldi	r24, 0x83	; 131
    13d8:	0e 94 c1 01 	call	0x382	; 0x382 <setOpMode>
    13dc:	01 c0       	rjmp	.+2      	; 0x13e0 <Tx+0x3c>
    13de:	00 00       	nop
    13e0:	83 e0       	ldi	r24, 0x03	; 3
    13e2:	0e 94 ca 04 	call	0x994	; 0x994 <getFlag>
    13e6:	88 23       	and	r24, r24
    13e8:	d1 f3       	breq	.-12     	; 0x13de <Tx+0x3a>
    13ea:	83 e0       	ldi	r24, 0x03	; 3
    13ec:	0e 94 e7 04 	call	0x9ce	; 0x9ce <clearFlag>
    13f0:	08 95       	ret

000013f2 <send>:
    13f2:	1f 93       	push	r17
    13f4:	cf 93       	push	r28
    13f6:	df 93       	push	r29
    13f8:	ec 01       	movw	r28, r24
    13fa:	82 e3       	ldi	r24, 0x32	; 50
    13fc:	90 e0       	ldi	r25, 0x00	; 0
    13fe:	0e 94 9b 01 	call	0x336	; 0x336 <checkValidState>
    1402:	80 91 d3 04 	lds	r24, 0x04D3	; 0x8004d3 <er>
    1406:	10 92 d3 04 	sts	0x04D3, r1	; 0x8004d3 <er>
    140a:	88 23       	and	r24, r24
    140c:	21 f0       	breq	.+8      	; 0x1416 <send+0x24>
    140e:	85 e0       	ldi	r24, 0x05	; 5
    1410:	0e 94 76 00 	call	0xec	; 0xec <ErrorSet>
    1414:	a0 c0       	rjmp	.+320    	; 0x1556 <send+0x164>
    1416:	1d 81       	ldd	r17, Y+5	; 0x05
    1418:	1a 5f       	subi	r17, 0xFA	; 250
    141a:	0e 94 26 08 	call	0x104c	; 0x104c <getPayloadMaxLength>
    141e:	81 17       	cp	r24, r17
    1420:	28 f4       	brcc	.+10     	; 0x142c <send+0x3a>
    1422:	6f e4       	ldi	r22, 0x4F	; 79
    1424:	73 e0       	ldi	r23, 0x03	; 3
    1426:	86 e0       	ldi	r24, 0x06	; 6
    1428:	0e 94 87 00 	call	0x10e	; 0x10e <ErrorSetMsg>
    142c:	81 2f       	mov	r24, r17
    142e:	0e 94 03 08 	call	0x1006	; 0x1006 <setPayloadLength>
    1432:	80 e0       	ldi	r24, 0x00	; 0
    1434:	0e 94 02 07 	call	0xe04	; 0xe04 <setFifoTxBaseAddr>
    1438:	80 e0       	ldi	r24, 0x00	; 0
    143a:	0e 94 c3 06 	call	0xd86	; 0xd86 <setFifoAddrPtr>
    143e:	0e 94 5c 01 	call	0x2b8	; 0x2b8 <setValidFIFO>
    1442:	88 81       	ld	r24, Y
    1444:	f8 94       	cli
    1446:	2a 98       	cbi	0x05, 2	; 5
    1448:	90 e8       	ldi	r25, 0x80	; 128
    144a:	9e bd       	out	0x2e, r25	; 46
    144c:	00 00       	nop
    144e:	0d b4       	in	r0, 0x2d	; 45
    1450:	07 fe       	sbrs	r0, 7
    1452:	fd cf       	rjmp	.-6      	; 0x144e <send+0x5c>
    1454:	8e bd       	out	0x2e, r24	; 46
    1456:	00 00       	nop
    1458:	0d b4       	in	r0, 0x2d	; 45
    145a:	07 fe       	sbrs	r0, 7
    145c:	fd cf       	rjmp	.-6      	; 0x1458 <send+0x66>
    145e:	2a 9a       	sbi	0x05, 2	; 5
    1460:	78 94       	sei
    1462:	8e b5       	in	r24, 0x2e	; 46
    1464:	8a 81       	ldd	r24, Y+2	; 0x02
    1466:	f8 94       	cli
    1468:	2a 98       	cbi	0x05, 2	; 5
    146a:	90 e8       	ldi	r25, 0x80	; 128
    146c:	9e bd       	out	0x2e, r25	; 46
    146e:	00 00       	nop
    1470:	0d b4       	in	r0, 0x2d	; 45
    1472:	07 fe       	sbrs	r0, 7
    1474:	fd cf       	rjmp	.-6      	; 0x1470 <send+0x7e>
    1476:	8e bd       	out	0x2e, r24	; 46
    1478:	00 00       	nop
    147a:	0d b4       	in	r0, 0x2d	; 45
    147c:	07 fe       	sbrs	r0, 7
    147e:	fd cf       	rjmp	.-6      	; 0x147a <send+0x88>
    1480:	2a 9a       	sbi	0x05, 2	; 5
    1482:	78 94       	sei
    1484:	8e b5       	in	r24, 0x2e	; 46
    1486:	89 81       	ldd	r24, Y+1	; 0x01
    1488:	f8 94       	cli
    148a:	2a 98       	cbi	0x05, 2	; 5
    148c:	90 e8       	ldi	r25, 0x80	; 128
    148e:	9e bd       	out	0x2e, r25	; 46
    1490:	00 00       	nop
    1492:	0d b4       	in	r0, 0x2d	; 45
    1494:	07 fe       	sbrs	r0, 7
    1496:	fd cf       	rjmp	.-6      	; 0x1492 <send+0xa0>
    1498:	8e bd       	out	0x2e, r24	; 46
    149a:	00 00       	nop
    149c:	0d b4       	in	r0, 0x2d	; 45
    149e:	07 fe       	sbrs	r0, 7
    14a0:	fd cf       	rjmp	.-6      	; 0x149c <send+0xaa>
    14a2:	2a 9a       	sbi	0x05, 2	; 5
    14a4:	78 94       	sei
    14a6:	8e b5       	in	r24, 0x2e	; 46
    14a8:	8b 81       	ldd	r24, Y+3	; 0x03
    14aa:	f8 94       	cli
    14ac:	2a 98       	cbi	0x05, 2	; 5
    14ae:	90 e8       	ldi	r25, 0x80	; 128
    14b0:	9e bd       	out	0x2e, r25	; 46
    14b2:	00 00       	nop
    14b4:	0d b4       	in	r0, 0x2d	; 45
    14b6:	07 fe       	sbrs	r0, 7
    14b8:	fd cf       	rjmp	.-6      	; 0x14b4 <send+0xc2>
    14ba:	8e bd       	out	0x2e, r24	; 46
    14bc:	00 00       	nop
    14be:	0d b4       	in	r0, 0x2d	; 45
    14c0:	07 fe       	sbrs	r0, 7
    14c2:	fd cf       	rjmp	.-6      	; 0x14be <send+0xcc>
    14c4:	2a 9a       	sbi	0x05, 2	; 5
    14c6:	78 94       	sei
    14c8:	8e b5       	in	r24, 0x2e	; 46
    14ca:	8d 81       	ldd	r24, Y+5	; 0x05
    14cc:	f8 94       	cli
    14ce:	2a 98       	cbi	0x05, 2	; 5
    14d0:	90 e8       	ldi	r25, 0x80	; 128
    14d2:	9e bd       	out	0x2e, r25	; 46
    14d4:	00 00       	nop
    14d6:	0d b4       	in	r0, 0x2d	; 45
    14d8:	07 fe       	sbrs	r0, 7
    14da:	fd cf       	rjmp	.-6      	; 0x14d6 <send+0xe4>
    14dc:	8e bd       	out	0x2e, r24	; 46
    14de:	00 00       	nop
    14e0:	0d b4       	in	r0, 0x2d	; 45
    14e2:	07 fe       	sbrs	r0, 7
    14e4:	fd cf       	rjmp	.-6      	; 0x14e0 <send+0xee>
    14e6:	2a 9a       	sbi	0x05, 2	; 5
    14e8:	78 94       	sei
    14ea:	8e b5       	in	r24, 0x2e	; 46
    14ec:	8c 81       	ldd	r24, Y+4	; 0x04
    14ee:	f8 94       	cli
    14f0:	2a 98       	cbi	0x05, 2	; 5
    14f2:	90 e8       	ldi	r25, 0x80	; 128
    14f4:	9e bd       	out	0x2e, r25	; 46
    14f6:	00 00       	nop
    14f8:	0d b4       	in	r0, 0x2d	; 45
    14fa:	07 fe       	sbrs	r0, 7
    14fc:	fd cf       	rjmp	.-6      	; 0x14f8 <send+0x106>
    14fe:	8e bd       	out	0x2e, r24	; 46
    1500:	00 00       	nop
    1502:	0d b4       	in	r0, 0x2d	; 45
    1504:	07 fe       	sbrs	r0, 7
    1506:	fd cf       	rjmp	.-6      	; 0x1502 <send+0x110>
    1508:	2a 9a       	sbi	0x05, 2	; 5
    150a:	78 94       	sei
    150c:	8e b5       	in	r24, 0x2e	; 46
    150e:	8d 81       	ldd	r24, Y+5	; 0x05
    1510:	2e 81       	ldd	r18, Y+6	; 0x06
    1512:	3f 81       	ldd	r19, Y+7	; 0x07
    1514:	f8 94       	cli
    1516:	90 e8       	ldi	r25, 0x80	; 128
    1518:	9e bd       	out	0x2e, r25	; 46
    151a:	2a 98       	cbi	0x05, 2	; 5
    151c:	0d b4       	in	r0, 0x2d	; 45
    151e:	07 fe       	sbrs	r0, 7
    1520:	fd cf       	rjmp	.-6      	; 0x151c <send+0x12a>
    1522:	88 23       	and	r24, r24
    1524:	71 f0       	breq	.+28     	; 0x1542 <send+0x150>
    1526:	f9 01       	movw	r30, r18
    1528:	81 50       	subi	r24, 0x01	; 1
    152a:	90 e0       	ldi	r25, 0x00	; 0
    152c:	01 96       	adiw	r24, 0x01	; 1
    152e:	28 0f       	add	r18, r24
    1530:	39 1f       	adc	r19, r25
    1532:	81 91       	ld	r24, Z+
    1534:	8e bd       	out	0x2e, r24	; 46
    1536:	0d b4       	in	r0, 0x2d	; 45
    1538:	07 fe       	sbrs	r0, 7
    153a:	fd cf       	rjmp	.-6      	; 0x1536 <send+0x144>
    153c:	e2 17       	cp	r30, r18
    153e:	f3 07       	cpc	r31, r19
    1540:	c1 f7       	brne	.-16     	; 0x1532 <send+0x140>
    1542:	78 94       	sei
    1544:	2a 9a       	sbi	0x05, 2	; 5
    1546:	60 91 aa 04 	lds	r22, 0x04AA	; 0x8004aa <txSymbTimeout>
    154a:	70 91 ab 04 	lds	r23, 0x04AB	; 0x8004ab <txSymbTimeout+0x1>
    154e:	80 e0       	ldi	r24, 0x00	; 0
    1550:	90 e0       	ldi	r25, 0x00	; 0
    1552:	0e 94 d2 09 	call	0x13a4	; 0x13a4 <Tx>
    1556:	df 91       	pop	r29
    1558:	cf 91       	pop	r28
    155a:	1f 91       	pop	r17
    155c:	08 95       	ret

0000155e <Rx>:
    155e:	cf 93       	push	r28
    1560:	df 93       	push	r29
    1562:	ec 01       	movw	r28, r24
    1564:	82 e3       	ldi	r24, 0x32	; 50
    1566:	0e 94 a9 01 	call	0x352	; 0x352 <setValidState>
    156a:	80 91 d3 04 	lds	r24, 0x04D3	; 0x8004d3 <er>
    156e:	10 92 d3 04 	sts	0x04D3, r1	; 0x8004d3 <er>
    1572:	88 23       	and	r24, r24
    1574:	21 f0       	breq	.+8      	; 0x157e <Rx+0x20>
    1576:	85 e0       	ldi	r24, 0x05	; 5
    1578:	0e 94 76 00 	call	0xec	; 0xec <ErrorSet>
    157c:	49 c0       	rjmp	.+146    	; 0x1610 <Rx+0xb2>
    157e:	0e 94 27 05 	call	0xa4e	; 0xa4e <clearAll>
    1582:	0e 94 91 04 	call	0x922	; 0x922 <maskAll>
    1586:	60 e0       	ldi	r22, 0x00	; 0
    1588:	87 e0       	ldi	r24, 0x07	; 7
    158a:	0e 94 2e 04 	call	0x85c	; 0x85c <setMask>
    158e:	60 e0       	ldi	r22, 0x00	; 0
    1590:	86 e0       	ldi	r24, 0x06	; 6
    1592:	0e 94 2e 04 	call	0x85c	; 0x85c <setMask>
    1596:	60 e0       	ldi	r22, 0x00	; 0
    1598:	85 e0       	ldi	r24, 0x05	; 5
    159a:	0e 94 2e 04 	call	0x85c	; 0x85c <setMask>
    159e:	60 e0       	ldi	r22, 0x00	; 0
    15a0:	84 e0       	ldi	r24, 0x04	; 4
    15a2:	0e 94 2e 04 	call	0x85c	; 0x85c <setMask>
    15a6:	f8 94       	cli
    15a8:	2a 98       	cbi	0x05, 2	; 5
    15aa:	80 ec       	ldi	r24, 0xC0	; 192
    15ac:	8e bd       	out	0x2e, r24	; 46
    15ae:	00 00       	nop
    15b0:	0d b4       	in	r0, 0x2d	; 45
    15b2:	07 fe       	sbrs	r0, 7
    15b4:	fd cf       	rjmp	.-6      	; 0x15b0 <Rx+0x52>
    15b6:	80 e4       	ldi	r24, 0x40	; 64
    15b8:	8e bd       	out	0x2e, r24	; 46
    15ba:	00 00       	nop
    15bc:	0d b4       	in	r0, 0x2d	; 45
    15be:	07 fe       	sbrs	r0, 7
    15c0:	fd cf       	rjmp	.-6      	; 0x15bc <Rx+0x5e>
    15c2:	2a 9a       	sbi	0x05, 2	; 5
    15c4:	78 94       	sei
    15c6:	8e b5       	in	r24, 0x2e	; 46
    15c8:	80 e0       	ldi	r24, 0x00	; 0
    15ca:	0e 94 c3 06 	call	0xd86	; 0xd86 <setFifoAddrPtr>
    15ce:	0e 94 9d 06 	call	0xd3a	; 0xd3a <getFifoAddrPtr>
    15d2:	81 11       	cpse	r24, r1
    15d4:	f9 cf       	rjmp	.-14     	; 0x15c8 <Rx+0x6a>
    15d6:	80 e0       	ldi	r24, 0x00	; 0
    15d8:	0e 94 41 07 	call	0xe82	; 0xe82 <setFifoRxBaseAddr>
    15dc:	0e 94 9d 06 	call	0xd3a	; 0xd3a <getFifoAddrPtr>
    15e0:	81 11       	cpse	r24, r1
    15e2:	f9 cf       	rjmp	.-14     	; 0x15d6 <Rx+0x78>
    15e4:	ce 01       	movw	r24, r28
    15e6:	0e 94 80 07 	call	0xf00	; 0xf00 <setSymbTimeout>
    15ea:	85 e0       	ldi	r24, 0x05	; 5
    15ec:	90 e0       	ldi	r25, 0x00	; 0
    15ee:	90 93 0b 01 	sts	0x010B, r25	; 0x80010b <udtState+0x1>
    15f2:	80 93 0a 01 	sts	0x010A, r24	; 0x80010a <udtState>
    15f6:	0e 94 4b 08 	call	0x1096	; 0x1096 <millis>
    15fa:	60 93 d8 04 	sts	0x04D8, r22	; 0x8004d8 <min>
    15fe:	70 93 d9 04 	sts	0x04D9, r23	; 0x8004d9 <min+0x1>
    1602:	80 93 da 04 	sts	0x04DA, r24	; 0x8004da <min+0x2>
    1606:	90 93 db 04 	sts	0x04DB, r25	; 0x8004db <min+0x3>
    160a:	86 e8       	ldi	r24, 0x86	; 134
    160c:	0e 94 c1 01 	call	0x382	; 0x382 <setOpMode>
    1610:	df 91       	pop	r29
    1612:	cf 91       	pop	r28
    1614:	08 95       	ret

00001616 <receive>:
    1616:	8f 92       	push	r8
    1618:	9f 92       	push	r9
    161a:	af 92       	push	r10
    161c:	bf 92       	push	r11
    161e:	cf 92       	push	r12
    1620:	df 92       	push	r13
    1622:	ef 92       	push	r14
    1624:	ff 92       	push	r15
    1626:	cf 93       	push	r28
    1628:	6c 01       	movw	r12, r24
    162a:	0e 94 af 0a 	call	0x155e	; 0x155e <Rx>
    162e:	0e 94 4b 08 	call	0x1096	; 0x1096 <millis>
    1632:	4b 01       	movw	r8, r22
    1634:	5c 01       	movw	r10, r24
    1636:	e1 2c       	mov	r14, r1
    1638:	f1 2c       	mov	r15, r1
    163a:	86 e0       	ldi	r24, 0x06	; 6
    163c:	0e 94 ca 04 	call	0x994	; 0x994 <getFlag>
    1640:	81 11       	cpse	r24, r1
    1642:	0d c0       	rjmp	.+26     	; 0x165e <receive+0x48>
    1644:	0e 94 4b 08 	call	0x1096	; 0x1096 <millis>
    1648:	dc 01       	movw	r26, r24
    164a:	cb 01       	movw	r24, r22
    164c:	88 19       	sub	r24, r8
    164e:	99 09       	sbc	r25, r9
    1650:	aa 09       	sbc	r26, r10
    1652:	bb 09       	sbc	r27, r11
    1654:	8c 15       	cp	r24, r12
    1656:	9d 05       	cpc	r25, r13
    1658:	ae 05       	cpc	r26, r14
    165a:	bf 05       	cpc	r27, r15
    165c:	70 f3       	brcs	.-36     	; 0x163a <receive+0x24>
    165e:	87 e0       	ldi	r24, 0x07	; 7
    1660:	0e 94 ca 04 	call	0x994	; 0x994 <getFlag>
    1664:	f8 2e       	mov	r15, r24
    1666:	88 23       	and	r24, r24
    1668:	59 f0       	breq	.+22     	; 0x1680 <receive+0x6a>
    166a:	87 e0       	ldi	r24, 0x07	; 7
    166c:	0e 94 e7 04 	call	0x9ce	; 0x9ce <clearFlag>
    1670:	82 e0       	ldi	r24, 0x02	; 2
    1672:	90 e0       	ldi	r25, 0x00	; 0
    1674:	90 93 0b 01 	sts	0x010B, r25	; 0x80010b <udtState+0x1>
    1678:	80 93 0a 01 	sts	0x010A, r24	; 0x80010a <udtState>
    167c:	c0 e0       	ldi	r28, 0x00	; 0
    167e:	04 c1       	rjmp	.+520    	; 0x1888 <receive+0x272>
    1680:	86 e0       	ldi	r24, 0x06	; 6
    1682:	0e 94 ca 04 	call	0x994	; 0x994 <getFlag>
    1686:	c8 2f       	mov	r28, r24
    1688:	88 23       	and	r24, r24
    168a:	09 f4       	brne	.+2      	; 0x168e <receive+0x78>
    168c:	fd c0       	rjmp	.+506    	; 0x1888 <receive+0x272>
    168e:	80 91 bf 04 	lds	r24, 0x04BF	; 0x8004bf <modemConfig+0x3>
    1692:	88 23       	and	r24, r24
    1694:	29 f1       	breq	.+74     	; 0x16e0 <receive+0xca>
    1696:	84 e0       	ldi	r24, 0x04	; 4
    1698:	0e 94 ca 04 	call	0x994	; 0x994 <getFlag>
    169c:	c8 2f       	mov	r28, r24
    169e:	81 11       	cpse	r24, r1
    16a0:	0b c0       	rjmp	.+22     	; 0x16b8 <receive+0xa2>
    16a2:	81 e0       	ldi	r24, 0x01	; 1
    16a4:	90 e0       	ldi	r25, 0x00	; 0
    16a6:	90 93 0b 01 	sts	0x010B, r25	; 0x80010b <udtState+0x1>
    16aa:	80 93 0a 01 	sts	0x010A, r24	; 0x80010a <udtState>
    16ae:	8a e7       	ldi	r24, 0x7A	; 122
    16b0:	93 e0       	ldi	r25, 0x03	; 3
    16b2:	0e 94 5a 0f 	call	0x1eb4	; 0x1eb4 <puts>
    16b6:	e8 c0       	rjmp	.+464    	; 0x1888 <receive+0x272>
    16b8:	85 e0       	ldi	r24, 0x05	; 5
    16ba:	0e 94 ca 04 	call	0x994	; 0x994 <getFlag>
    16be:	88 23       	and	r24, r24
    16c0:	79 f0       	breq	.+30     	; 0x16e0 <receive+0xca>
    16c2:	85 e0       	ldi	r24, 0x05	; 5
    16c4:	0e 94 e7 04 	call	0x9ce	; 0x9ce <clearFlag>
    16c8:	81 e0       	ldi	r24, 0x01	; 1
    16ca:	90 e0       	ldi	r25, 0x00	; 0
    16cc:	90 93 0b 01 	sts	0x010B, r25	; 0x80010b <udtState+0x1>
    16d0:	80 93 0a 01 	sts	0x010A, r24	; 0x80010a <udtState>
    16d4:	8a e7       	ldi	r24, 0x7A	; 122
    16d6:	93 e0       	ldi	r25, 0x03	; 3
    16d8:	0e 94 5a 0f 	call	0x1eb4	; 0x1eb4 <puts>
    16dc:	cf 2d       	mov	r28, r15
    16de:	d4 c0       	rjmp	.+424    	; 0x1888 <receive+0x272>
    16e0:	80 91 a2 04 	lds	r24, 0x04A2	; 0x8004a2 <__data_end+0x6>
    16e4:	90 91 a3 04 	lds	r25, 0x04A3	; 0x8004a3 <__data_end+0x7>
    16e8:	00 97       	sbiw	r24, 0x00	; 0
    16ea:	11 f0       	breq	.+4      	; 0x16f0 <receive+0xda>
    16ec:	0e 94 b4 0e 	call	0x1d68	; 0x1d68 <free>
    16f0:	f8 94       	cli
    16f2:	2a 98       	cbi	0x05, 2	; 5
    16f4:	83 e1       	ldi	r24, 0x13	; 19
    16f6:	8e bd       	out	0x2e, r24	; 46
    16f8:	00 00       	nop
    16fa:	0d b4       	in	r0, 0x2d	; 45
    16fc:	07 fe       	sbrs	r0, 7
    16fe:	fd cf       	rjmp	.-6      	; 0x16fa <receive+0xe4>
    1700:	8d ed       	ldi	r24, 0xDD	; 221
    1702:	8e bd       	out	0x2e, r24	; 46
    1704:	00 00       	nop
    1706:	0d b4       	in	r0, 0x2d	; 45
    1708:	07 fe       	sbrs	r0, 7
    170a:	fd cf       	rjmp	.-6      	; 0x1706 <receive+0xf0>
    170c:	2a 9a       	sbi	0x05, 2	; 5
    170e:	78 94       	sei
    1710:	2e b5       	in	r18, 0x2e	; 46
    1712:	f8 94       	cli
    1714:	2a 98       	cbi	0x05, 2	; 5
    1716:	1e bc       	out	0x2e, r1	; 46
    1718:	00 00       	nop
    171a:	0d b4       	in	r0, 0x2d	; 45
    171c:	07 fe       	sbrs	r0, 7
    171e:	fd cf       	rjmp	.-6      	; 0x171a <receive+0x104>
    1720:	8d ed       	ldi	r24, 0xDD	; 221
    1722:	8e bd       	out	0x2e, r24	; 46
    1724:	00 00       	nop
    1726:	0d b4       	in	r0, 0x2d	; 45
    1728:	07 fe       	sbrs	r0, 7
    172a:	fd cf       	rjmp	.-6      	; 0x1726 <receive+0x110>
    172c:	2a 9a       	sbi	0x05, 2	; 5
    172e:	78 94       	sei
    1730:	8e b5       	in	r24, 0x2e	; 46
    1732:	80 93 9c 04 	sts	0x049C, r24	; 0x80049c <__data_end>
    1736:	f8 94       	cli
    1738:	2a 98       	cbi	0x05, 2	; 5
    173a:	1e bc       	out	0x2e, r1	; 46
    173c:	00 00       	nop
    173e:	0d b4       	in	r0, 0x2d	; 45
    1740:	07 fe       	sbrs	r0, 7
    1742:	fd cf       	rjmp	.-6      	; 0x173e <receive+0x128>
    1744:	8d ed       	ldi	r24, 0xDD	; 221
    1746:	8e bd       	out	0x2e, r24	; 46
    1748:	00 00       	nop
    174a:	0d b4       	in	r0, 0x2d	; 45
    174c:	07 fe       	sbrs	r0, 7
    174e:	fd cf       	rjmp	.-6      	; 0x174a <receive+0x134>
    1750:	2a 9a       	sbi	0x05, 2	; 5
    1752:	78 94       	sei
    1754:	8e b5       	in	r24, 0x2e	; 46
    1756:	80 93 9e 04 	sts	0x049E, r24	; 0x80049e <__data_end+0x2>
    175a:	f8 94       	cli
    175c:	2a 98       	cbi	0x05, 2	; 5
    175e:	1e bc       	out	0x2e, r1	; 46
    1760:	00 00       	nop
    1762:	0d b4       	in	r0, 0x2d	; 45
    1764:	07 fe       	sbrs	r0, 7
    1766:	fd cf       	rjmp	.-6      	; 0x1762 <receive+0x14c>
    1768:	8d ed       	ldi	r24, 0xDD	; 221
    176a:	8e bd       	out	0x2e, r24	; 46
    176c:	00 00       	nop
    176e:	0d b4       	in	r0, 0x2d	; 45
    1770:	07 fe       	sbrs	r0, 7
    1772:	fd cf       	rjmp	.-6      	; 0x176e <receive+0x158>
    1774:	2a 9a       	sbi	0x05, 2	; 5
    1776:	78 94       	sei
    1778:	8e b5       	in	r24, 0x2e	; 46
    177a:	80 93 9d 04 	sts	0x049D, r24	; 0x80049d <__data_end+0x1>
    177e:	f8 94       	cli
    1780:	2a 98       	cbi	0x05, 2	; 5
    1782:	1e bc       	out	0x2e, r1	; 46
    1784:	00 00       	nop
    1786:	0d b4       	in	r0, 0x2d	; 45
    1788:	07 fe       	sbrs	r0, 7
    178a:	fd cf       	rjmp	.-6      	; 0x1786 <receive+0x170>
    178c:	8d ed       	ldi	r24, 0xDD	; 221
    178e:	8e bd       	out	0x2e, r24	; 46
    1790:	00 00       	nop
    1792:	0d b4       	in	r0, 0x2d	; 45
    1794:	07 fe       	sbrs	r0, 7
    1796:	fd cf       	rjmp	.-6      	; 0x1792 <receive+0x17c>
    1798:	2a 9a       	sbi	0x05, 2	; 5
    179a:	78 94       	sei
    179c:	8e b5       	in	r24, 0x2e	; 46
    179e:	80 93 9f 04 	sts	0x049F, r24	; 0x80049f <__data_end+0x3>
    17a2:	f8 94       	cli
    17a4:	2a 98       	cbi	0x05, 2	; 5
    17a6:	1e bc       	out	0x2e, r1	; 46
    17a8:	00 00       	nop
    17aa:	0d b4       	in	r0, 0x2d	; 45
    17ac:	07 fe       	sbrs	r0, 7
    17ae:	fd cf       	rjmp	.-6      	; 0x17aa <receive+0x194>
    17b0:	8d ed       	ldi	r24, 0xDD	; 221
    17b2:	8e bd       	out	0x2e, r24	; 46
    17b4:	00 00       	nop
    17b6:	0d b4       	in	r0, 0x2d	; 45
    17b8:	07 fe       	sbrs	r0, 7
    17ba:	fd cf       	rjmp	.-6      	; 0x17b6 <receive+0x1a0>
    17bc:	2a 9a       	sbi	0x05, 2	; 5
    17be:	78 94       	sei
    17c0:	8e b5       	in	r24, 0x2e	; 46
    17c2:	80 93 a1 04 	sts	0x04A1, r24	; 0x8004a1 <__data_end+0x5>
    17c6:	f8 94       	cli
    17c8:	2a 98       	cbi	0x05, 2	; 5
    17ca:	1e bc       	out	0x2e, r1	; 46
    17cc:	00 00       	nop
    17ce:	0d b4       	in	r0, 0x2d	; 45
    17d0:	07 fe       	sbrs	r0, 7
    17d2:	fd cf       	rjmp	.-6      	; 0x17ce <receive+0x1b8>
    17d4:	8d ed       	ldi	r24, 0xDD	; 221
    17d6:	8e bd       	out	0x2e, r24	; 46
    17d8:	00 00       	nop
    17da:	0d b4       	in	r0, 0x2d	; 45
    17dc:	07 fe       	sbrs	r0, 7
    17de:	fd cf       	rjmp	.-6      	; 0x17da <receive+0x1c4>
    17e0:	2a 9a       	sbi	0x05, 2	; 5
    17e2:	78 94       	sei
    17e4:	8e b5       	in	r24, 0x2e	; 46
    17e6:	ec e9       	ldi	r30, 0x9C	; 156
    17e8:	f4 e0       	ldi	r31, 0x04	; 4
    17ea:	84 83       	std	Z+4, r24	; 0x04
    17ec:	c5 81       	ldd	r28, Z+5	; 0x05
    17ee:	8c 2f       	mov	r24, r28
    17f0:	90 e0       	ldi	r25, 0x00	; 0
    17f2:	30 e0       	ldi	r19, 0x00	; 0
    17f4:	ac 01       	movw	r20, r24
    17f6:	4a 5f       	subi	r20, 0xFA	; 250
    17f8:	5f 4f       	sbci	r21, 0xFF	; 255
    17fa:	24 17       	cp	r18, r20
    17fc:	35 07       	cpc	r19, r21
    17fe:	b1 f0       	breq	.+44     	; 0x182c <receive+0x216>
    1800:	81 e9       	ldi	r24, 0x91	; 145
    1802:	93 e0       	ldi	r25, 0x03	; 3
    1804:	0e 94 5a 0f 	call	0x1eb4	; 0x1eb4 <puts>
    1808:	86 e0       	ldi	r24, 0x06	; 6
    180a:	0e 94 e7 04 	call	0x9ce	; 0x9ce <clearFlag>
    180e:	84 e0       	ldi	r24, 0x04	; 4
    1810:	0e 94 e7 04 	call	0x9ce	; 0x9ce <clearFlag>
    1814:	81 e0       	ldi	r24, 0x01	; 1
    1816:	90 e0       	ldi	r25, 0x00	; 0
    1818:	90 93 0b 01 	sts	0x010B, r25	; 0x80010b <udtState+0x1>
    181c:	80 93 0a 01 	sts	0x010A, r24	; 0x80010a <udtState>
    1820:	10 92 a3 04 	sts	0x04A3, r1	; 0x8004a3 <__data_end+0x7>
    1824:	10 92 a2 04 	sts	0x04A2, r1	; 0x8004a2 <__data_end+0x6>
    1828:	cf 2d       	mov	r28, r15
    182a:	2e c0       	rjmp	.+92     	; 0x1888 <receive+0x272>
    182c:	0e 94 1c 0e 	call	0x1c38	; 0x1c38 <malloc>
    1830:	ac 01       	movw	r20, r24
    1832:	f8 94       	cli
    1834:	1e bc       	out	0x2e, r1	; 46
    1836:	2a 98       	cbi	0x05, 2	; 5
    1838:	00 00       	nop
    183a:	0d b4       	in	r0, 0x2d	; 45
    183c:	07 fe       	sbrs	r0, 7
    183e:	fd cf       	rjmp	.-6      	; 0x183a <receive+0x224>
    1840:	cc 23       	and	r28, r28
    1842:	89 f0       	breq	.+34     	; 0x1866 <receive+0x250>
    1844:	fa 01       	movw	r30, r20
    1846:	c1 50       	subi	r28, 0x01	; 1
    1848:	2c 2f       	mov	r18, r28
    184a:	30 e0       	ldi	r19, 0x00	; 0
    184c:	2f 5f       	subi	r18, 0xFF	; 255
    184e:	3f 4f       	sbci	r19, 0xFF	; 255
    1850:	24 0f       	add	r18, r20
    1852:	35 1f       	adc	r19, r21
    1854:	1e bc       	out	0x2e, r1	; 46
    1856:	0d b4       	in	r0, 0x2d	; 45
    1858:	07 fe       	sbrs	r0, 7
    185a:	fd cf       	rjmp	.-6      	; 0x1856 <receive+0x240>
    185c:	9e b5       	in	r25, 0x2e	; 46
    185e:	91 93       	st	Z+, r25
    1860:	e2 17       	cp	r30, r18
    1862:	f3 07       	cpc	r31, r19
    1864:	b9 f7       	brne	.-18     	; 0x1854 <receive+0x23e>
    1866:	78 94       	sei
    1868:	2a 9a       	sbi	0x05, 2	; 5
    186a:	50 93 a3 04 	sts	0x04A3, r21	; 0x8004a3 <__data_end+0x7>
    186e:	40 93 a2 04 	sts	0x04A2, r20	; 0x8004a2 <__data_end+0x6>
    1872:	86 e0       	ldi	r24, 0x06	; 6
    1874:	0e 94 e7 04 	call	0x9ce	; 0x9ce <clearFlag>
    1878:	84 e0       	ldi	r24, 0x04	; 4
    187a:	0e 94 e7 04 	call	0x9ce	; 0x9ce <clearFlag>
    187e:	10 92 0b 01 	sts	0x010B, r1	; 0x80010b <udtState+0x1>
    1882:	10 92 0a 01 	sts	0x010A, r1	; 0x80010a <udtState>
    1886:	c1 e0       	ldi	r28, 0x01	; 1
    1888:	8c 2f       	mov	r24, r28
    188a:	cf 91       	pop	r28
    188c:	ff 90       	pop	r15
    188e:	ef 90       	pop	r14
    1890:	df 90       	pop	r13
    1892:	cf 90       	pop	r12
    1894:	bf 90       	pop	r11
    1896:	af 90       	pop	r10
    1898:	9f 90       	pop	r9
    189a:	8f 90       	pop	r8
    189c:	08 95       	ret

0000189e <ACK_PACKET>:
    189e:	1f 93       	push	r17
    18a0:	cf 93       	push	r28
    18a2:	df 93       	push	r29
    18a4:	18 2f       	mov	r17, r24
    18a6:	d6 2f       	mov	r29, r22
    18a8:	c4 2f       	mov	r28, r20
    18aa:	88 e0       	ldi	r24, 0x08	; 8
    18ac:	90 e0       	ldi	r25, 0x00	; 0
    18ae:	0e 94 1c 0e 	call	0x1c38	; 0x1c38 <malloc>
    18b2:	fc 01       	movw	r30, r24
    18b4:	80 eb       	ldi	r24, 0xB0	; 176
    18b6:	82 83       	std	Z+2, r24	; 0x02
    18b8:	85 e4       	ldi	r24, 0x45	; 69
    18ba:	83 83       	std	Z+3, r24	; 0x03
    18bc:	10 83       	st	Z, r17
    18be:	d1 83       	std	Z+1, r29	; 0x01
    18c0:	c4 83       	std	Z+4, r28	; 0x04
    18c2:	15 82       	std	Z+5, r1	; 0x05
    18c4:	17 82       	std	Z+7, r1	; 0x07
    18c6:	16 82       	std	Z+6, r1	; 0x06
    18c8:	cf 01       	movw	r24, r30
    18ca:	df 91       	pop	r29
    18cc:	cf 91       	pop	r28
    18ce:	1f 91       	pop	r17
    18d0:	08 95       	ret

000018d2 <SEND_KEY_PACKET>:
    18d2:	ff 92       	push	r15
    18d4:	0f 93       	push	r16
    18d6:	1f 93       	push	r17
    18d8:	cf 93       	push	r28
    18da:	df 93       	push	r29
    18dc:	f8 2e       	mov	r15, r24
    18de:	06 2f       	mov	r16, r22
    18e0:	ea 01       	movw	r28, r20
    18e2:	12 2f       	mov	r17, r18
    18e4:	88 e0       	ldi	r24, 0x08	; 8
    18e6:	90 e0       	ldi	r25, 0x00	; 0
    18e8:	0e 94 1c 0e 	call	0x1c38	; 0x1c38 <malloc>
    18ec:	fc 01       	movw	r30, r24
    18ee:	81 ed       	ldi	r24, 0xD1	; 209
    18f0:	82 83       	std	Z+2, r24	; 0x02
    18f2:	f0 82       	st	Z, r15
    18f4:	85 e4       	ldi	r24, 0x45	; 69
    18f6:	83 83       	std	Z+3, r24	; 0x03
    18f8:	04 83       	std	Z+4, r16	; 0x04
    18fa:	8b ea       	ldi	r24, 0xAB	; 171
    18fc:	81 83       	std	Z+1, r24	; 0x01
    18fe:	15 83       	std	Z+5, r17	; 0x05
    1900:	d7 83       	std	Z+7, r29	; 0x07
    1902:	c6 83       	std	Z+6, r28	; 0x06
    1904:	cf 01       	movw	r24, r30
    1906:	df 91       	pop	r29
    1908:	cf 91       	pop	r28
    190a:	1f 91       	pop	r17
    190c:	0f 91       	pop	r16
    190e:	ff 90       	pop	r15
    1910:	08 95       	ret

00001912 <main>:




int main(void)
{
    1912:	cf 93       	push	r28
    1914:	df 93       	push	r29
    1916:	1f 92       	push	r1
    1918:	cd b7       	in	r28, 0x3d	; 61
    191a:	de b7       	in	r29, 0x3e	; 62
static FILE mystdout;

void USART_Init(unsigned int ubrr)
{
	/*Set baud rate */
	UBRR0H = (unsigned char)(ubrr>>8);
    191c:	10 92 c5 00 	sts	0x00C5, r1	; 0x8000c5 <__TEXT_REGION_LENGTH__+0x7e00c5>
	UBRR0L = (unsigned char)ubrr;
    1920:	87 e6       	ldi	r24, 0x67	; 103
    1922:	80 93 c4 00 	sts	0x00C4, r24	; 0x8000c4 <__TEXT_REGION_LENGTH__+0x7e00c4>
	// Enable transmitter and receiver
	UCSR0B = (1<<RXEN0)|(1<<TXEN0);
    1926:	88 e1       	ldi	r24, 0x18	; 24
    1928:	80 93 c1 00 	sts	0x00C1, r24	; 0x8000c1 <__TEXT_REGION_LENGTH__+0x7e00c1>
	/* Set frame format: 8data, 2stop bit */
	UCSR0C = (1<<USBS0)|(3<<UCSZ00);
    192c:	8e e0       	ldi	r24, 0x0E	; 14
    192e:	80 93 c2 00 	sts	0x00C2, r24	; 0x8000c2 <__TEXT_REGION_LENGTH__+0x7e00c2>
	fdev_setup_stream(&mystdout, USART_Transmit, USART_Receive, _FDEV_SETUP_RW);
    1932:	e5 ec       	ldi	r30, 0xC5	; 197
    1934:	f4 e0       	ldi	r31, 0x04	; 4
    1936:	82 e6       	ldi	r24, 0x62	; 98
    1938:	90 e0       	ldi	r25, 0x00	; 0
    193a:	91 87       	std	Z+9, r25	; 0x09
    193c:	80 87       	std	Z+8, r24	; 0x08
    193e:	89 e5       	ldi	r24, 0x59	; 89
    1940:	90 e0       	ldi	r25, 0x00	; 0
    1942:	93 87       	std	Z+11, r25	; 0x0b
    1944:	82 87       	std	Z+10, r24	; 0x0a
    1946:	83 e0       	ldi	r24, 0x03	; 3
    1948:	83 83       	std	Z+3, r24	; 0x03
    194a:	15 86       	std	Z+13, r1	; 0x0d
    194c:	14 86       	std	Z+12, r1	; 0x0c
	stdout = &mystdout;
    194e:	ad ee       	ldi	r26, 0xED	; 237
    1950:	b4 e0       	ldi	r27, 0x04	; 4
    1952:	13 96       	adiw	r26, 0x03	; 3
    1954:	fc 93       	st	X, r31
    1956:	ee 93       	st	-X, r30
    1958:	12 97       	sbiw	r26, 0x02	; 2
	stdin = &mystdout;
    195a:	ed 93       	st	X+, r30
    195c:	fc 93       	st	X, r31
	
	USART_Init(MYUBRR);
	SPIbegin(SPI_CLOCK_DIV4,MSBFIRST,SPI_MODE0);
    195e:	40 e0       	ldi	r20, 0x00	; 0
    1960:	61 e0       	ldi	r22, 0x01	; 1
    1962:	80 e0       	ldi	r24, 0x00	; 0
    1964:	0e 94 9c 00 	call	0x138	; 0x138 <SPIbegin>
	millis_init();
    1968:	0e 94 c1 08 	call	0x1182	; 0x1182 <millis_init>
	receivedPacket.data = 0;
    196c:	10 92 a3 04 	sts	0x04A3, r1	; 0x8004a3 <__data_end+0x7>
    1970:	10 92 a2 04 	sts	0x04A2, r1	; 0x8004a2 <__data_end+0x6>
	
	char a = '0';
    1974:	80 e3       	ldi	r24, 0x30	; 48
    1976:	89 83       	std	Y+1, r24	; 0x01
	printf("Press Enter to continue.\n");
    1978:	86 ef       	ldi	r24, 0xF6	; 246
    197a:	93 e0       	ldi	r25, 0x03	; 3
    197c:	0e 94 5a 0f 	call	0x1eb4	; 0x1eb4 <puts>
	scanf("%c",&a);
    1980:	ce 01       	movw	r24, r28
    1982:	01 96       	adiw	r24, 0x01	; 1
    1984:	9f 93       	push	r25
    1986:	8f 93       	push	r24
    1988:	8d eb       	ldi	r24, 0xBD	; 189
    198a:	93 e0       	ldi	r25, 0x03	; 3
    198c:	9f 93       	push	r25
    198e:	8f 93       	push	r24
    1990:	0e 94 8a 0f 	call	0x1f14	; 0x1f14 <scanf>
    1994:	0f 90       	pop	r0
    1996:	0f 90       	pop	r0
    1998:	0f 90       	pop	r0
    199a:	0f 90       	pop	r0
inline uint8_t readRegister(uint8_t address){
	
	cli();
	bitClear(address,7);
	bitClear(SPI_PORT,SS);
	SPDR = address;
    199c:	0f 2e       	mov	r0, r31
    199e:	f2 e4       	ldi	r31, 0x42	; 66
    19a0:	df 2e       	mov	r13, r31
    19a2:	f0 2d       	mov	r31, r0
	_NOP();
	while(!(SPSR & _BV(SPIF)));
	SPDR = 0xDD;
    19a4:	0f 2e       	mov	r0, r31
    19a6:	fd ed       	ldi	r31, 0xDD	; 221
    19a8:	ef 2e       	mov	r14, r31
    19aa:	f0 2d       	mov	r31, r0
	uint8_t version = 0x00;
	do {
		version = readRegister(REG_VERSION);
		printf("Lora's version is %02x\n",version);
    19ac:	00 ec       	ldi	r16, 0xC0	; 192
    19ae:	13 e0       	ldi	r17, 0x03	; 3
	
}

inline uint8_t readRegister(uint8_t address){
	
	cli();
    19b0:	f8 94       	cli
	bitClear(address,7);
	bitClear(SPI_PORT,SS);
    19b2:	2a 98       	cbi	0x05, 2	; 5
	SPDR = address;
    19b4:	de bc       	out	0x2e, r13	; 46
	_NOP();
    19b6:	00 00       	nop
	while(!(SPSR & _BV(SPIF)));
    19b8:	0d b4       	in	r0, 0x2d	; 45
    19ba:	07 fe       	sbrs	r0, 7
    19bc:	fd cf       	rjmp	.-6      	; 0x19b8 <main+0xa6>
	SPDR = 0xDD;
    19be:	ee bc       	out	0x2e, r14	; 46
	_NOP();
    19c0:	00 00       	nop
	while(!(SPSR & _BV(SPIF)));
    19c2:	0d b4       	in	r0, 0x2d	; 45
    19c4:	07 fe       	sbrs	r0, 7
    19c6:	fd cf       	rjmp	.-6      	; 0x19c2 <main+0xb0>
	bitSet(SPI_PORT,SS);
    19c8:	2a 9a       	sbi	0x05, 2	; 5
	
	sei();
    19ca:	78 94       	sei
	
	return SPDR;
    19cc:	fe b4       	in	r15, 0x2e	; 46
    19ce:	1f 92       	push	r1
    19d0:	ff 92       	push	r15
    19d2:	1f 93       	push	r17
    19d4:	0f 93       	push	r16
    19d6:	0e 94 3d 0f 	call	0x1e7a	; 0x1e7a <printf>
	#else
		//round up by default
		__ticks_dc = (uint32_t)(ceil(fabs(__tmp)));
	#endif

	__builtin_avr_delay_cycles(__ticks_dc);
    19da:	2f ef       	ldi	r18, 0xFF	; 255
    19dc:	81 ee       	ldi	r24, 0xE1	; 225
    19de:	94 e0       	ldi	r25, 0x04	; 4
    19e0:	21 50       	subi	r18, 0x01	; 1
    19e2:	80 40       	sbci	r24, 0x00	; 0
    19e4:	90 40       	sbci	r25, 0x00	; 0
    19e6:	e1 f7       	brne	.-8      	; 0x19e0 <main+0xce>
    19e8:	00 c0       	rjmp	.+0      	; 0x19ea <main+0xd8>
    19ea:	00 00       	nop
		_delay_ms(100);
	}while(version != 0x22);
    19ec:	0f 90       	pop	r0
    19ee:	0f 90       	pop	r0
    19f0:	0f 90       	pop	r0
    19f2:	0f 90       	pop	r0
    19f4:	a2 e2       	ldi	r26, 0x22	; 34
    19f6:	fa 12       	cpse	r15, r26
    19f8:	db cf       	rjmp	.-74     	; 0x19b0 <main+0x9e>
	
	printf("Press Enter to continue.\n");
    19fa:	86 ef       	ldi	r24, 0xF6	; 246
    19fc:	93 e0       	ldi	r25, 0x03	; 3
    19fe:	0e 94 5a 0f 	call	0x1eb4	; 0x1eb4 <puts>
	scanf("%c",&a);
    1a02:	fe 01       	movw	r30, r28
    1a04:	31 96       	adiw	r30, 0x01	; 1
    1a06:	7f 01       	movw	r14, r30
    1a08:	ff 93       	push	r31
    1a0a:	ef 93       	push	r30
    1a0c:	0d eb       	ldi	r16, 0xBD	; 189
    1a0e:	13 e0       	ldi	r17, 0x03	; 3
    1a10:	1f 93       	push	r17
    1a12:	0f 93       	push	r16
    1a14:	0e 94 8a 0f 	call	0x1f14	; 0x1f14 <scanf>
	
	sx1272init();
    1a18:	0e 94 c6 03 	call	0x78c	; 0x78c <sx1272init>
	
	printf("Press Enter to continue.\n");
    1a1c:	86 ef       	ldi	r24, 0xF6	; 246
    1a1e:	93 e0       	ldi	r25, 0x03	; 3
    1a20:	0e 94 5a 0f 	call	0x1eb4	; 0x1eb4 <puts>
	scanf("%c",&a);
    1a24:	ff 92       	push	r15
    1a26:	ef 92       	push	r14
    1a28:	1f 93       	push	r17
    1a2a:	0f 93       	push	r16
    1a2c:	0e 94 8a 0f 	call	0x1f14	; 0x1f14 <scanf>
	
	sync();
    1a30:	0e 94 5d 05 	call	0xaba	; 0xaba <sync>
	
	printf("FIFO registers sync complete.\nPress Enter to continue.\n");
    1a34:	88 ed       	ldi	r24, 0xD8	; 216
    1a36:	93 e0       	ldi	r25, 0x03	; 3
    1a38:	0e 94 5a 0f 	call	0x1eb4	; 0x1eb4 <puts>
	scanf("%c",&a);
    1a3c:	ff 92       	push	r15
    1a3e:	ef 92       	push	r14
    1a40:	1f 93       	push	r17
    1a42:	0f 93       	push	r16
    1a44:	0e 94 8a 0f 	call	0x1f14	; 0x1f14 <scanf>
	
	txInit(modemConfig,CH_17_868,5,400,500);
    1a48:	0f 2e       	mov	r0, r31
    1a4a:	f4 ef       	ldi	r31, 0xF4	; 244
    1a4c:	8f 2e       	mov	r8, r31
    1a4e:	99 24       	eor	r9, r9
    1a50:	93 94       	inc	r9
    1a52:	f0 2d       	mov	r31, r0
    1a54:	0f 2e       	mov	r0, r31
    1a56:	f0 e9       	ldi	r31, 0x90	; 144
    1a58:	af 2e       	mov	r10, r31
    1a5a:	bb 24       	eor	r11, r11
    1a5c:	b3 94       	inc	r11
    1a5e:	f0 2d       	mov	r31, r0
    1a60:	0f 2e       	mov	r0, r31
    1a62:	f5 e0       	ldi	r31, 0x05	; 5
    1a64:	cf 2e       	mov	r12, r31
    1a66:	f0 2d       	mov	r31, r0
    1a68:	e1 2c       	mov	r14, r1
    1a6a:	f1 2c       	mov	r15, r1
    1a6c:	09 ed       	ldi	r16, 0xD9	; 217
    1a6e:	10 e0       	ldi	r17, 0x00	; 0
    1a70:	20 91 bc 04 	lds	r18, 0x04BC	; 0x8004bc <modemConfig>
    1a74:	30 91 bd 04 	lds	r19, 0x04BD	; 0x8004bd <modemConfig+0x1>
    1a78:	40 91 be 04 	lds	r20, 0x04BE	; 0x8004be <modemConfig+0x2>
    1a7c:	50 91 bf 04 	lds	r21, 0x04BF	; 0x8004bf <modemConfig+0x3>
    1a80:	60 91 c0 04 	lds	r22, 0x04C0	; 0x8004c0 <modemConfig+0x4>
    1a84:	70 91 c1 04 	lds	r23, 0x04C1	; 0x8004c1 <modemConfig+0x5>
    1a88:	80 91 c2 04 	lds	r24, 0x04C2	; 0x8004c2 <modemConfig+0x6>
    1a8c:	90 91 c3 04 	lds	r25, 0x04C3	; 0x8004c3 <modemConfig+0x7>
    1a90:	0e 94 db 08 	call	0x11b6	; 0x11b6 <txInit>
	rxInit(modemConfig,400,500);
    1a94:	0f 2e       	mov	r0, r31
    1a96:	f4 ef       	ldi	r31, 0xF4	; 244
    1a98:	ef 2e       	mov	r14, r31
    1a9a:	ff 24       	eor	r15, r15
    1a9c:	f3 94       	inc	r15
    1a9e:	f0 2d       	mov	r31, r0
    1aa0:	00 e9       	ldi	r16, 0x90	; 144
    1aa2:	11 e0       	ldi	r17, 0x01	; 1
    1aa4:	20 91 bc 04 	lds	r18, 0x04BC	; 0x8004bc <modemConfig>
    1aa8:	30 91 bd 04 	lds	r19, 0x04BD	; 0x8004bd <modemConfig+0x1>
    1aac:	40 91 be 04 	lds	r20, 0x04BE	; 0x8004be <modemConfig+0x2>
    1ab0:	50 91 bf 04 	lds	r21, 0x04BF	; 0x8004bf <modemConfig+0x3>
    1ab4:	60 91 c0 04 	lds	r22, 0x04C0	; 0x8004c0 <modemConfig+0x4>
    1ab8:	70 91 c1 04 	lds	r23, 0x04C1	; 0x8004c1 <modemConfig+0x5>
    1abc:	80 91 c2 04 	lds	r24, 0x04C2	; 0x8004c2 <modemConfig+0x6>
    1ac0:	90 91 c3 04 	lds	r25, 0x04C3	; 0x8004c3 <modemConfig+0x7>
    1ac4:	0e 94 71 09 	call	0x12e2	; 0x12e2 <rxInit>
	setLnaGain(LNA_BOOST,LNA_MAX_GAIN);
    1ac8:	63 e2       	ldi	r22, 0x23	; 35
    1aca:	83 e0       	ldi	r24, 0x03	; 3
    1acc:	0e 94 ae 02 	call	0x55c	; 0x55c <setLnaGain>
	printf("LNA BOOST : ON, LNA GAIN : MAX\n");
    1ad0:	8f e0       	ldi	r24, 0x0F	; 15
    1ad2:	94 e0       	ldi	r25, 0x04	; 4
    1ad4:	0e 94 5a 0f 	call	0x1eb4	; 0x1eb4 <puts>
	setPower(13);
    1ad8:	8d e0       	ldi	r24, 0x0D	; 13
    1ada:	90 e0       	ldi	r25, 0x00	; 0
    1adc:	0e 94 22 02 	call	0x444	; 0x444 <setPower>
	printf("Power : 13dB\n");
    1ae0:	8e e2       	ldi	r24, 0x2E	; 46
    1ae2:	94 e0       	ldi	r25, 0x04	; 4
    1ae4:	0e 94 5a 0f 	call	0x1eb4	; 0x1eb4 <puts>
    1ae8:	0f b6       	in	r0, 0x3f	; 63
    1aea:	f8 94       	cli
    1aec:	de bf       	out	0x3e, r29	; 62
    1aee:	0f be       	out	0x3f, r0	; 63
    1af0:	cd bf       	out	0x3d, r28	; 61
	}
	*/
	
	
	
	bool keySent = false;
    1af2:	10 e0       	ldi	r17, 0x00	; 0
    1af4:	0f 2e       	mov	r0, r31
    1af6:	fa e0       	ldi	r31, 0x0A	; 10
    1af8:	af 2e       	mov	r10, r31
    1afa:	f1 e0       	ldi	r31, 0x01	; 1
    1afc:	bf 2e       	mov	r11, r31
    1afe:	f0 2d       	mov	r31, r0
		
		if (keySent == false) {
			
			printf("KEYREQUEST:: Enter a key.\n");
			for (int i = 0; i < 4; i++){
				scanf("%c", key+i);
    1b00:	0f 2e       	mov	r0, r31
    1b02:	fd eb       	ldi	r31, 0xBD	; 189
    1b04:	ef 2e       	mov	r14, r31
    1b06:	f3 e0       	ldi	r31, 0x03	; 3
    1b08:	ff 2e       	mov	r15, r31
    1b0a:	f0 2d       	mov	r31, r0
				printf("%c",key[i]);
			}
			
			printf("\n");
			keySent = true;
			len = 4;
    1b0c:	68 94       	set
    1b0e:	44 24       	eor	r4, r4
    1b10:	42 f8       	bld	r4, 2
				scanf("%c", key+i);
				printf("%c",key[i]);
			}
			
			printf("\n");
			keySent = true;
    1b12:	55 24       	eor	r5, r5
    1b14:	53 94       	inc	r5
				
				break;
				
				case UDT_RX_PACKET_RECEIVED:{
					
					if(receivedPacket.ack != PACKET_ACK) {
    1b16:	0f 2e       	mov	r0, r31
    1b18:	fc e9       	ldi	r31, 0x9C	; 156
    1b1a:	8f 2e       	mov	r8, r31
    1b1c:	f4 e0       	ldi	r31, 0x04	; 4
    1b1e:	9f 2e       	mov	r9, r31
    1b20:	f0 2d       	mov	r31, r0
						
						if (receivedPacket.type == PACKET_KEY_ACCEPT){
							
							send(ACK_PACKET(receivedPacket.src,PACKET_ACK,receivedPacket.seq));
							printf("key update ack send.\n");
							printf("KEYUPDATE:: key=");
    1b22:	0f 2e       	mov	r0, r31
    1b24:	fb e7       	ldi	r31, 0x7B	; 123
    1b26:	6f 2e       	mov	r6, r31
    1b28:	f4 e0       	ldi	r31, 0x04	; 4
    1b2a:	7f 2e       	mov	r7, r31
    1b2c:	f0 2d       	mov	r31, r0
							for (int i = 0; i < 4; i++)
							printf("%c",receivedPacket.data[i]);
							printf(" ,device=%02x\n",receivedPacket.src);
    1b2e:	0f 2e       	mov	r0, r31
    1b30:	fc e8       	ldi	r31, 0x8C	; 140
    1b32:	2f 2e       	mov	r2, r31
    1b34:	f4 e0       	ldi	r31, 0x04	; 4
    1b36:	3f 2e       	mov	r3, r31
    1b38:	f0 2d       	mov	r31, r0
	
	bool keySent = false;
	
	while(1) {
		
		if (keySent == false) {
    1b3a:	11 11       	cpse	r17, r1
    1b3c:	22 c0       	rjmp	.+68     	; 0x1b82 <main+0x270>
			
			printf("KEYREQUEST:: Enter a key.\n");
    1b3e:	8b e3       	ldi	r24, 0x3B	; 59
    1b40:	94 e0       	ldi	r25, 0x04	; 4
    1b42:	0e 94 5a 0f 	call	0x1eb4	; 0x1eb4 <puts>
    1b46:	06 e0       	ldi	r16, 0x06	; 6
    1b48:	11 e0       	ldi	r17, 0x01	; 1
			for (int i = 0; i < 4; i++){
				scanf("%c", key+i);
    1b4a:	68 01       	movw	r12, r16
    1b4c:	1f 93       	push	r17
    1b4e:	0f 93       	push	r16
    1b50:	ff 92       	push	r15
    1b52:	ef 92       	push	r14
    1b54:	0e 94 8a 0f 	call	0x1f14	; 0x1f14 <scanf>
    1b58:	0f 5f       	subi	r16, 0xFF	; 255
    1b5a:	1f 4f       	sbci	r17, 0xFF	; 255
				printf("%c",key[i]);
    1b5c:	d6 01       	movw	r26, r12
    1b5e:	8c 91       	ld	r24, X
    1b60:	90 e0       	ldi	r25, 0x00	; 0
    1b62:	0e 94 53 0f 	call	0x1ea6	; 0x1ea6 <putchar>
	while(1) {
		
		if (keySent == false) {
			
			printf("KEYREQUEST:: Enter a key.\n");
			for (int i = 0; i < 4; i++){
    1b66:	0f 90       	pop	r0
    1b68:	0f 90       	pop	r0
    1b6a:	0f 90       	pop	r0
    1b6c:	0f 90       	pop	r0
    1b6e:	a0 16       	cp	r10, r16
    1b70:	b1 06       	cpc	r11, r17
    1b72:	59 f7       	brne	.-42     	; 0x1b4a <main+0x238>
				scanf("%c", key+i);
				printf("%c",key[i]);
			}
			
			printf("\n");
    1b74:	8a e0       	ldi	r24, 0x0A	; 10
    1b76:	90 e0       	ldi	r25, 0x00	; 0
    1b78:	0e 94 53 0f 	call	0x1ea6	; 0x1ea6 <putchar>
			keySent = true;
			len = 4;
    1b7c:	40 92 e8 04 	sts	0x04E8, r4	; 0x8004e8 <len>
				scanf("%c", key+i);
				printf("%c",key[i]);
			}
			
			printf("\n");
			keySent = true;
    1b80:	15 2d       	mov	r17, r5
			len = 4;
		}
			
			receive(1000);
    1b82:	88 ee       	ldi	r24, 0xE8	; 232
    1b84:	93 e0       	ldi	r25, 0x03	; 3
    1b86:	0e 94 0b 0b 	call	0x1616	; 0x1616 <receive>
			switch(udtState){
    1b8a:	80 91 0a 01 	lds	r24, 0x010A	; 0x80010a <udtState>
    1b8e:	90 91 0b 01 	lds	r25, 0x010B	; 0x80010b <udtState+0x1>
    1b92:	89 2b       	or	r24, r25
    1b94:	91 f6       	brne	.-92     	; 0x1b3a <main+0x228>
				
				break;
				
				case UDT_RX_PACKET_RECEIVED:{
					
					if(receivedPacket.ack != PACKET_ACK) {
    1b96:	f4 01       	movw	r30, r8
    1b98:	81 81       	ldd	r24, Z+1	; 0x01
    1b9a:	80 3b       	cpi	r24, 0xB0	; 176
    1b9c:	71 f2       	breq	.-100    	; 0x1b3a <main+0x228>
						
						if (receivedPacket.type == PACKET_KEY_REQUEST){
    1b9e:	82 81       	ldd	r24, Z+2	; 0x02
    1ba0:	80 3d       	cpi	r24, 0xD0	; 208
    1ba2:	79 f4       	brne	.+30     	; 0x1bc2 <main+0x2b0>
							send(SEND_KEY_PACKET(receivedPacket.src,receivedPacket.seq,(uint8_t*) key,len));
    1ba4:	20 91 e8 04 	lds	r18, 0x04E8	; 0x8004e8 <len>
    1ba8:	46 e0       	ldi	r20, 0x06	; 6
    1baa:	51 e0       	ldi	r21, 0x01	; 1
    1bac:	64 81       	ldd	r22, Z+4	; 0x04
    1bae:	83 81       	ldd	r24, Z+3	; 0x03
    1bb0:	0e 94 69 0c 	call	0x18d2	; 0x18d2 <SEND_KEY_PACKET>
    1bb4:	0e 94 f9 09 	call	0x13f2	; 0x13f2 <send>
							printf("KEY packet Sent.\n");
    1bb8:	85 e5       	ldi	r24, 0x55	; 85
    1bba:	94 e0       	ldi	r25, 0x04	; 4
    1bbc:	0e 94 5a 0f 	call	0x1eb4	; 0x1eb4 <puts>
							keySent = true;
    1bc0:	15 2d       	mov	r17, r5
						}
						
						if (receivedPacket.type == PACKET_KEY_ACCEPT){
    1bc2:	d4 01       	movw	r26, r8
    1bc4:	12 96       	adiw	r26, 0x02	; 2
    1bc6:	8c 91       	ld	r24, X
    1bc8:	12 97       	sbiw	r26, 0x02	; 2
    1bca:	82 3d       	cpi	r24, 0xD2	; 210
    1bcc:	09 f0       	breq	.+2      	; 0x1bd0 <main+0x2be>
    1bce:	b5 cf       	rjmp	.-150    	; 0x1b3a <main+0x228>
							
							send(ACK_PACKET(receivedPacket.src,PACKET_ACK,receivedPacket.seq));
    1bd0:	14 96       	adiw	r26, 0x04	; 4
    1bd2:	4c 91       	ld	r20, X
    1bd4:	14 97       	sbiw	r26, 0x04	; 4
    1bd6:	60 eb       	ldi	r22, 0xB0	; 176
    1bd8:	13 96       	adiw	r26, 0x03	; 3
    1bda:	8c 91       	ld	r24, X
    1bdc:	0e 94 4f 0c 	call	0x189e	; 0x189e <ACK_PACKET>
    1be0:	0e 94 f9 09 	call	0x13f2	; 0x13f2 <send>
							printf("key update ack send.\n");
    1be4:	86 e6       	ldi	r24, 0x66	; 102
    1be6:	94 e0       	ldi	r25, 0x04	; 4
    1be8:	0e 94 5a 0f 	call	0x1eb4	; 0x1eb4 <puts>
							printf("KEYUPDATE:: key=");
    1bec:	7f 92       	push	r7
    1bee:	6f 92       	push	r6
    1bf0:	0e 94 3d 0f 	call	0x1e7a	; 0x1e7a <printf>
    1bf4:	0f 90       	pop	r0
    1bf6:	0f 90       	pop	r0
							for (int i = 0; i < 4; i++)
    1bf8:	00 e0       	ldi	r16, 0x00	; 0
    1bfa:	10 e0       	ldi	r17, 0x00	; 0
							printf("%c",receivedPacket.data[i]);
    1bfc:	d4 01       	movw	r26, r8
    1bfe:	16 96       	adiw	r26, 0x06	; 6
    1c00:	ed 91       	ld	r30, X+
    1c02:	fc 91       	ld	r31, X
    1c04:	17 97       	sbiw	r26, 0x07	; 7
    1c06:	e0 0f       	add	r30, r16
    1c08:	f1 1f       	adc	r31, r17
    1c0a:	80 81       	ld	r24, Z
    1c0c:	90 e0       	ldi	r25, 0x00	; 0
    1c0e:	0e 94 53 0f 	call	0x1ea6	; 0x1ea6 <putchar>
						if (receivedPacket.type == PACKET_KEY_ACCEPT){
							
							send(ACK_PACKET(receivedPacket.src,PACKET_ACK,receivedPacket.seq));
							printf("key update ack send.\n");
							printf("KEYUPDATE:: key=");
							for (int i = 0; i < 4; i++)
    1c12:	0f 5f       	subi	r16, 0xFF	; 255
    1c14:	1f 4f       	sbci	r17, 0xFF	; 255
    1c16:	04 30       	cpi	r16, 0x04	; 4
    1c18:	11 05       	cpc	r17, r1
    1c1a:	81 f7       	brne	.-32     	; 0x1bfc <main+0x2ea>
							printf("%c",receivedPacket.data[i]);
							printf(" ,device=%02x\n",receivedPacket.src);
    1c1c:	f4 01       	movw	r30, r8
    1c1e:	83 81       	ldd	r24, Z+3	; 0x03
    1c20:	1f 92       	push	r1
    1c22:	8f 93       	push	r24
    1c24:	3f 92       	push	r3
    1c26:	2f 92       	push	r2
    1c28:	0e 94 3d 0f 	call	0x1e7a	; 0x1e7a <printf>
    1c2c:	0f 90       	pop	r0
    1c2e:	0f 90       	pop	r0
    1c30:	0f 90       	pop	r0
    1c32:	0f 90       	pop	r0
							keySent = false;
    1c34:	10 e0       	ldi	r17, 0x00	; 0
    1c36:	81 cf       	rjmp	.-254    	; 0x1b3a <main+0x228>

00001c38 <malloc>:
    1c38:	0f 93       	push	r16
    1c3a:	1f 93       	push	r17
    1c3c:	cf 93       	push	r28
    1c3e:	df 93       	push	r29
    1c40:	82 30       	cpi	r24, 0x02	; 2
    1c42:	91 05       	cpc	r25, r1
    1c44:	10 f4       	brcc	.+4      	; 0x1c4a <malloc+0x12>
    1c46:	82 e0       	ldi	r24, 0x02	; 2
    1c48:	90 e0       	ldi	r25, 0x00	; 0
    1c4a:	e0 91 eb 04 	lds	r30, 0x04EB	; 0x8004eb <__flp>
    1c4e:	f0 91 ec 04 	lds	r31, 0x04EC	; 0x8004ec <__flp+0x1>
    1c52:	20 e0       	ldi	r18, 0x00	; 0
    1c54:	30 e0       	ldi	r19, 0x00	; 0
    1c56:	a0 e0       	ldi	r26, 0x00	; 0
    1c58:	b0 e0       	ldi	r27, 0x00	; 0
    1c5a:	30 97       	sbiw	r30, 0x00	; 0
    1c5c:	19 f1       	breq	.+70     	; 0x1ca4 <malloc+0x6c>
    1c5e:	40 81       	ld	r20, Z
    1c60:	51 81       	ldd	r21, Z+1	; 0x01
    1c62:	02 81       	ldd	r16, Z+2	; 0x02
    1c64:	13 81       	ldd	r17, Z+3	; 0x03
    1c66:	48 17       	cp	r20, r24
    1c68:	59 07       	cpc	r21, r25
    1c6a:	c8 f0       	brcs	.+50     	; 0x1c9e <malloc+0x66>
    1c6c:	84 17       	cp	r24, r20
    1c6e:	95 07       	cpc	r25, r21
    1c70:	69 f4       	brne	.+26     	; 0x1c8c <malloc+0x54>
    1c72:	10 97       	sbiw	r26, 0x00	; 0
    1c74:	31 f0       	breq	.+12     	; 0x1c82 <malloc+0x4a>
    1c76:	12 96       	adiw	r26, 0x02	; 2
    1c78:	0c 93       	st	X, r16
    1c7a:	12 97       	sbiw	r26, 0x02	; 2
    1c7c:	13 96       	adiw	r26, 0x03	; 3
    1c7e:	1c 93       	st	X, r17
    1c80:	27 c0       	rjmp	.+78     	; 0x1cd0 <malloc+0x98>
    1c82:	00 93 eb 04 	sts	0x04EB, r16	; 0x8004eb <__flp>
    1c86:	10 93 ec 04 	sts	0x04EC, r17	; 0x8004ec <__flp+0x1>
    1c8a:	22 c0       	rjmp	.+68     	; 0x1cd0 <malloc+0x98>
    1c8c:	21 15       	cp	r18, r1
    1c8e:	31 05       	cpc	r19, r1
    1c90:	19 f0       	breq	.+6      	; 0x1c98 <malloc+0x60>
    1c92:	42 17       	cp	r20, r18
    1c94:	53 07       	cpc	r21, r19
    1c96:	18 f4       	brcc	.+6      	; 0x1c9e <malloc+0x66>
    1c98:	9a 01       	movw	r18, r20
    1c9a:	bd 01       	movw	r22, r26
    1c9c:	ef 01       	movw	r28, r30
    1c9e:	df 01       	movw	r26, r30
    1ca0:	f8 01       	movw	r30, r16
    1ca2:	db cf       	rjmp	.-74     	; 0x1c5a <malloc+0x22>
    1ca4:	21 15       	cp	r18, r1
    1ca6:	31 05       	cpc	r19, r1
    1ca8:	f9 f0       	breq	.+62     	; 0x1ce8 <malloc+0xb0>
    1caa:	28 1b       	sub	r18, r24
    1cac:	39 0b       	sbc	r19, r25
    1cae:	24 30       	cpi	r18, 0x04	; 4
    1cb0:	31 05       	cpc	r19, r1
    1cb2:	80 f4       	brcc	.+32     	; 0x1cd4 <malloc+0x9c>
    1cb4:	8a 81       	ldd	r24, Y+2	; 0x02
    1cb6:	9b 81       	ldd	r25, Y+3	; 0x03
    1cb8:	61 15       	cp	r22, r1
    1cba:	71 05       	cpc	r23, r1
    1cbc:	21 f0       	breq	.+8      	; 0x1cc6 <malloc+0x8e>
    1cbe:	fb 01       	movw	r30, r22
    1cc0:	93 83       	std	Z+3, r25	; 0x03
    1cc2:	82 83       	std	Z+2, r24	; 0x02
    1cc4:	04 c0       	rjmp	.+8      	; 0x1cce <malloc+0x96>
    1cc6:	90 93 ec 04 	sts	0x04EC, r25	; 0x8004ec <__flp+0x1>
    1cca:	80 93 eb 04 	sts	0x04EB, r24	; 0x8004eb <__flp>
    1cce:	fe 01       	movw	r30, r28
    1cd0:	32 96       	adiw	r30, 0x02	; 2
    1cd2:	44 c0       	rjmp	.+136    	; 0x1d5c <malloc+0x124>
    1cd4:	fe 01       	movw	r30, r28
    1cd6:	e2 0f       	add	r30, r18
    1cd8:	f3 1f       	adc	r31, r19
    1cda:	81 93       	st	Z+, r24
    1cdc:	91 93       	st	Z+, r25
    1cde:	22 50       	subi	r18, 0x02	; 2
    1ce0:	31 09       	sbc	r19, r1
    1ce2:	39 83       	std	Y+1, r19	; 0x01
    1ce4:	28 83       	st	Y, r18
    1ce6:	3a c0       	rjmp	.+116    	; 0x1d5c <malloc+0x124>
    1ce8:	20 91 e9 04 	lds	r18, 0x04E9	; 0x8004e9 <__brkval>
    1cec:	30 91 ea 04 	lds	r19, 0x04EA	; 0x8004ea <__brkval+0x1>
    1cf0:	23 2b       	or	r18, r19
    1cf2:	41 f4       	brne	.+16     	; 0x1d04 <malloc+0xcc>
    1cf4:	20 91 02 01 	lds	r18, 0x0102	; 0x800102 <__malloc_heap_start>
    1cf8:	30 91 03 01 	lds	r19, 0x0103	; 0x800103 <__malloc_heap_start+0x1>
    1cfc:	30 93 ea 04 	sts	0x04EA, r19	; 0x8004ea <__brkval+0x1>
    1d00:	20 93 e9 04 	sts	0x04E9, r18	; 0x8004e9 <__brkval>
    1d04:	20 91 00 01 	lds	r18, 0x0100	; 0x800100 <__data_start>
    1d08:	30 91 01 01 	lds	r19, 0x0101	; 0x800101 <__data_start+0x1>
    1d0c:	21 15       	cp	r18, r1
    1d0e:	31 05       	cpc	r19, r1
    1d10:	41 f4       	brne	.+16     	; 0x1d22 <malloc+0xea>
    1d12:	2d b7       	in	r18, 0x3d	; 61
    1d14:	3e b7       	in	r19, 0x3e	; 62
    1d16:	40 91 04 01 	lds	r20, 0x0104	; 0x800104 <__malloc_margin>
    1d1a:	50 91 05 01 	lds	r21, 0x0105	; 0x800105 <__malloc_margin+0x1>
    1d1e:	24 1b       	sub	r18, r20
    1d20:	35 0b       	sbc	r19, r21
    1d22:	e0 91 e9 04 	lds	r30, 0x04E9	; 0x8004e9 <__brkval>
    1d26:	f0 91 ea 04 	lds	r31, 0x04EA	; 0x8004ea <__brkval+0x1>
    1d2a:	e2 17       	cp	r30, r18
    1d2c:	f3 07       	cpc	r31, r19
    1d2e:	a0 f4       	brcc	.+40     	; 0x1d58 <malloc+0x120>
    1d30:	2e 1b       	sub	r18, r30
    1d32:	3f 0b       	sbc	r19, r31
    1d34:	28 17       	cp	r18, r24
    1d36:	39 07       	cpc	r19, r25
    1d38:	78 f0       	brcs	.+30     	; 0x1d58 <malloc+0x120>
    1d3a:	ac 01       	movw	r20, r24
    1d3c:	4e 5f       	subi	r20, 0xFE	; 254
    1d3e:	5f 4f       	sbci	r21, 0xFF	; 255
    1d40:	24 17       	cp	r18, r20
    1d42:	35 07       	cpc	r19, r21
    1d44:	48 f0       	brcs	.+18     	; 0x1d58 <malloc+0x120>
    1d46:	4e 0f       	add	r20, r30
    1d48:	5f 1f       	adc	r21, r31
    1d4a:	50 93 ea 04 	sts	0x04EA, r21	; 0x8004ea <__brkval+0x1>
    1d4e:	40 93 e9 04 	sts	0x04E9, r20	; 0x8004e9 <__brkval>
    1d52:	81 93       	st	Z+, r24
    1d54:	91 93       	st	Z+, r25
    1d56:	02 c0       	rjmp	.+4      	; 0x1d5c <malloc+0x124>
    1d58:	e0 e0       	ldi	r30, 0x00	; 0
    1d5a:	f0 e0       	ldi	r31, 0x00	; 0
    1d5c:	cf 01       	movw	r24, r30
    1d5e:	df 91       	pop	r29
    1d60:	cf 91       	pop	r28
    1d62:	1f 91       	pop	r17
    1d64:	0f 91       	pop	r16
    1d66:	08 95       	ret

00001d68 <free>:
    1d68:	cf 93       	push	r28
    1d6a:	df 93       	push	r29
    1d6c:	00 97       	sbiw	r24, 0x00	; 0
    1d6e:	09 f4       	brne	.+2      	; 0x1d72 <free+0xa>
    1d70:	81 c0       	rjmp	.+258    	; 0x1e74 <free+0x10c>
    1d72:	fc 01       	movw	r30, r24
    1d74:	32 97       	sbiw	r30, 0x02	; 2
    1d76:	13 82       	std	Z+3, r1	; 0x03
    1d78:	12 82       	std	Z+2, r1	; 0x02
    1d7a:	a0 91 eb 04 	lds	r26, 0x04EB	; 0x8004eb <__flp>
    1d7e:	b0 91 ec 04 	lds	r27, 0x04EC	; 0x8004ec <__flp+0x1>
    1d82:	10 97       	sbiw	r26, 0x00	; 0
    1d84:	81 f4       	brne	.+32     	; 0x1da6 <free+0x3e>
    1d86:	20 81       	ld	r18, Z
    1d88:	31 81       	ldd	r19, Z+1	; 0x01
    1d8a:	82 0f       	add	r24, r18
    1d8c:	93 1f       	adc	r25, r19
    1d8e:	20 91 e9 04 	lds	r18, 0x04E9	; 0x8004e9 <__brkval>
    1d92:	30 91 ea 04 	lds	r19, 0x04EA	; 0x8004ea <__brkval+0x1>
    1d96:	28 17       	cp	r18, r24
    1d98:	39 07       	cpc	r19, r25
    1d9a:	51 f5       	brne	.+84     	; 0x1df0 <free+0x88>
    1d9c:	f0 93 ea 04 	sts	0x04EA, r31	; 0x8004ea <__brkval+0x1>
    1da0:	e0 93 e9 04 	sts	0x04E9, r30	; 0x8004e9 <__brkval>
    1da4:	67 c0       	rjmp	.+206    	; 0x1e74 <free+0x10c>
    1da6:	ed 01       	movw	r28, r26
    1da8:	20 e0       	ldi	r18, 0x00	; 0
    1daa:	30 e0       	ldi	r19, 0x00	; 0
    1dac:	ce 17       	cp	r28, r30
    1dae:	df 07       	cpc	r29, r31
    1db0:	40 f4       	brcc	.+16     	; 0x1dc2 <free+0x5a>
    1db2:	4a 81       	ldd	r20, Y+2	; 0x02
    1db4:	5b 81       	ldd	r21, Y+3	; 0x03
    1db6:	9e 01       	movw	r18, r28
    1db8:	41 15       	cp	r20, r1
    1dba:	51 05       	cpc	r21, r1
    1dbc:	f1 f0       	breq	.+60     	; 0x1dfa <free+0x92>
    1dbe:	ea 01       	movw	r28, r20
    1dc0:	f5 cf       	rjmp	.-22     	; 0x1dac <free+0x44>
    1dc2:	d3 83       	std	Z+3, r29	; 0x03
    1dc4:	c2 83       	std	Z+2, r28	; 0x02
    1dc6:	40 81       	ld	r20, Z
    1dc8:	51 81       	ldd	r21, Z+1	; 0x01
    1dca:	84 0f       	add	r24, r20
    1dcc:	95 1f       	adc	r25, r21
    1dce:	c8 17       	cp	r28, r24
    1dd0:	d9 07       	cpc	r29, r25
    1dd2:	59 f4       	brne	.+22     	; 0x1dea <free+0x82>
    1dd4:	88 81       	ld	r24, Y
    1dd6:	99 81       	ldd	r25, Y+1	; 0x01
    1dd8:	84 0f       	add	r24, r20
    1dda:	95 1f       	adc	r25, r21
    1ddc:	02 96       	adiw	r24, 0x02	; 2
    1dde:	91 83       	std	Z+1, r25	; 0x01
    1de0:	80 83       	st	Z, r24
    1de2:	8a 81       	ldd	r24, Y+2	; 0x02
    1de4:	9b 81       	ldd	r25, Y+3	; 0x03
    1de6:	93 83       	std	Z+3, r25	; 0x03
    1de8:	82 83       	std	Z+2, r24	; 0x02
    1dea:	21 15       	cp	r18, r1
    1dec:	31 05       	cpc	r19, r1
    1dee:	29 f4       	brne	.+10     	; 0x1dfa <free+0x92>
    1df0:	f0 93 ec 04 	sts	0x04EC, r31	; 0x8004ec <__flp+0x1>
    1df4:	e0 93 eb 04 	sts	0x04EB, r30	; 0x8004eb <__flp>
    1df8:	3d c0       	rjmp	.+122    	; 0x1e74 <free+0x10c>
    1dfa:	e9 01       	movw	r28, r18
    1dfc:	fb 83       	std	Y+3, r31	; 0x03
    1dfe:	ea 83       	std	Y+2, r30	; 0x02
    1e00:	49 91       	ld	r20, Y+
    1e02:	59 91       	ld	r21, Y+
    1e04:	c4 0f       	add	r28, r20
    1e06:	d5 1f       	adc	r29, r21
    1e08:	ec 17       	cp	r30, r28
    1e0a:	fd 07       	cpc	r31, r29
    1e0c:	61 f4       	brne	.+24     	; 0x1e26 <free+0xbe>
    1e0e:	80 81       	ld	r24, Z
    1e10:	91 81       	ldd	r25, Z+1	; 0x01
    1e12:	84 0f       	add	r24, r20
    1e14:	95 1f       	adc	r25, r21
    1e16:	02 96       	adiw	r24, 0x02	; 2
    1e18:	e9 01       	movw	r28, r18
    1e1a:	99 83       	std	Y+1, r25	; 0x01
    1e1c:	88 83       	st	Y, r24
    1e1e:	82 81       	ldd	r24, Z+2	; 0x02
    1e20:	93 81       	ldd	r25, Z+3	; 0x03
    1e22:	9b 83       	std	Y+3, r25	; 0x03
    1e24:	8a 83       	std	Y+2, r24	; 0x02
    1e26:	e0 e0       	ldi	r30, 0x00	; 0
    1e28:	f0 e0       	ldi	r31, 0x00	; 0
    1e2a:	12 96       	adiw	r26, 0x02	; 2
    1e2c:	8d 91       	ld	r24, X+
    1e2e:	9c 91       	ld	r25, X
    1e30:	13 97       	sbiw	r26, 0x03	; 3
    1e32:	00 97       	sbiw	r24, 0x00	; 0
    1e34:	19 f0       	breq	.+6      	; 0x1e3c <free+0xd4>
    1e36:	fd 01       	movw	r30, r26
    1e38:	dc 01       	movw	r26, r24
    1e3a:	f7 cf       	rjmp	.-18     	; 0x1e2a <free+0xc2>
    1e3c:	8d 91       	ld	r24, X+
    1e3e:	9c 91       	ld	r25, X
    1e40:	11 97       	sbiw	r26, 0x01	; 1
    1e42:	9d 01       	movw	r18, r26
    1e44:	2e 5f       	subi	r18, 0xFE	; 254
    1e46:	3f 4f       	sbci	r19, 0xFF	; 255
    1e48:	82 0f       	add	r24, r18
    1e4a:	93 1f       	adc	r25, r19
    1e4c:	20 91 e9 04 	lds	r18, 0x04E9	; 0x8004e9 <__brkval>
    1e50:	30 91 ea 04 	lds	r19, 0x04EA	; 0x8004ea <__brkval+0x1>
    1e54:	28 17       	cp	r18, r24
    1e56:	39 07       	cpc	r19, r25
    1e58:	69 f4       	brne	.+26     	; 0x1e74 <free+0x10c>
    1e5a:	30 97       	sbiw	r30, 0x00	; 0
    1e5c:	29 f4       	brne	.+10     	; 0x1e68 <free+0x100>
    1e5e:	10 92 ec 04 	sts	0x04EC, r1	; 0x8004ec <__flp+0x1>
    1e62:	10 92 eb 04 	sts	0x04EB, r1	; 0x8004eb <__flp>
    1e66:	02 c0       	rjmp	.+4      	; 0x1e6c <free+0x104>
    1e68:	13 82       	std	Z+3, r1	; 0x03
    1e6a:	12 82       	std	Z+2, r1	; 0x02
    1e6c:	b0 93 ea 04 	sts	0x04EA, r27	; 0x8004ea <__brkval+0x1>
    1e70:	a0 93 e9 04 	sts	0x04E9, r26	; 0x8004e9 <__brkval>
    1e74:	df 91       	pop	r29
    1e76:	cf 91       	pop	r28
    1e78:	08 95       	ret

00001e7a <printf>:
    1e7a:	a0 e0       	ldi	r26, 0x00	; 0
    1e7c:	b0 e0       	ldi	r27, 0x00	; 0
    1e7e:	e3 e4       	ldi	r30, 0x43	; 67
    1e80:	ff e0       	ldi	r31, 0x0F	; 15
    1e82:	0c 94 5c 15 	jmp	0x2ab8	; 0x2ab8 <__prologue_saves__+0x20>
    1e86:	ae 01       	movw	r20, r28
    1e88:	4b 5f       	subi	r20, 0xFB	; 251
    1e8a:	5f 4f       	sbci	r21, 0xFF	; 255
    1e8c:	fa 01       	movw	r30, r20
    1e8e:	61 91       	ld	r22, Z+
    1e90:	71 91       	ld	r23, Z+
    1e92:	af 01       	movw	r20, r30
    1e94:	80 91 ef 04 	lds	r24, 0x04EF	; 0x8004ef <__iob+0x2>
    1e98:	90 91 f0 04 	lds	r25, 0x04F0	; 0x8004f0 <__iob+0x3>
    1e9c:	0e 94 a0 0f 	call	0x1f40	; 0x1f40 <vfprintf>
    1ea0:	e2 e0       	ldi	r30, 0x02	; 2
    1ea2:	0c 94 78 15 	jmp	0x2af0	; 0x2af0 <__epilogue_restores__+0x20>

00001ea6 <putchar>:
    1ea6:	60 91 ef 04 	lds	r22, 0x04EF	; 0x8004ef <__iob+0x2>
    1eaa:	70 91 f0 04 	lds	r23, 0x04F0	; 0x8004f0 <__iob+0x3>
    1eae:	0e 94 96 14 	call	0x292c	; 0x292c <fputc>
    1eb2:	08 95       	ret

00001eb4 <puts>:
    1eb4:	0f 93       	push	r16
    1eb6:	1f 93       	push	r17
    1eb8:	cf 93       	push	r28
    1eba:	df 93       	push	r29
    1ebc:	e0 91 ef 04 	lds	r30, 0x04EF	; 0x8004ef <__iob+0x2>
    1ec0:	f0 91 f0 04 	lds	r31, 0x04F0	; 0x8004f0 <__iob+0x3>
    1ec4:	23 81       	ldd	r18, Z+3	; 0x03
    1ec6:	21 ff       	sbrs	r18, 1
    1ec8:	1b c0       	rjmp	.+54     	; 0x1f00 <puts+0x4c>
    1eca:	8c 01       	movw	r16, r24
    1ecc:	d0 e0       	ldi	r29, 0x00	; 0
    1ece:	c0 e0       	ldi	r28, 0x00	; 0
    1ed0:	f8 01       	movw	r30, r16
    1ed2:	81 91       	ld	r24, Z+
    1ed4:	8f 01       	movw	r16, r30
    1ed6:	60 91 ef 04 	lds	r22, 0x04EF	; 0x8004ef <__iob+0x2>
    1eda:	70 91 f0 04 	lds	r23, 0x04F0	; 0x8004f0 <__iob+0x3>
    1ede:	db 01       	movw	r26, r22
    1ee0:	18 96       	adiw	r26, 0x08	; 8
    1ee2:	ed 91       	ld	r30, X+
    1ee4:	fc 91       	ld	r31, X
    1ee6:	19 97       	sbiw	r26, 0x09	; 9
    1ee8:	88 23       	and	r24, r24
    1eea:	31 f0       	breq	.+12     	; 0x1ef8 <puts+0x44>
    1eec:	09 95       	icall
    1eee:	89 2b       	or	r24, r25
    1ef0:	79 f3       	breq	.-34     	; 0x1ed0 <puts+0x1c>
    1ef2:	df ef       	ldi	r29, 0xFF	; 255
    1ef4:	cf ef       	ldi	r28, 0xFF	; 255
    1ef6:	ec cf       	rjmp	.-40     	; 0x1ed0 <puts+0x1c>
    1ef8:	8a e0       	ldi	r24, 0x0A	; 10
    1efa:	09 95       	icall
    1efc:	89 2b       	or	r24, r25
    1efe:	19 f0       	breq	.+6      	; 0x1f06 <puts+0x52>
    1f00:	8f ef       	ldi	r24, 0xFF	; 255
    1f02:	9f ef       	ldi	r25, 0xFF	; 255
    1f04:	02 c0       	rjmp	.+4      	; 0x1f0a <puts+0x56>
    1f06:	8d 2f       	mov	r24, r29
    1f08:	9c 2f       	mov	r25, r28
    1f0a:	df 91       	pop	r29
    1f0c:	cf 91       	pop	r28
    1f0e:	1f 91       	pop	r17
    1f10:	0f 91       	pop	r16
    1f12:	08 95       	ret

00001f14 <scanf>:
    1f14:	a0 e0       	ldi	r26, 0x00	; 0
    1f16:	b0 e0       	ldi	r27, 0x00	; 0
    1f18:	e0 e9       	ldi	r30, 0x90	; 144
    1f1a:	ff e0       	ldi	r31, 0x0F	; 15
    1f1c:	0c 94 5c 15 	jmp	0x2ab8	; 0x2ab8 <__prologue_saves__+0x20>
    1f20:	ae 01       	movw	r20, r28
    1f22:	4b 5f       	subi	r20, 0xFB	; 251
    1f24:	5f 4f       	sbci	r21, 0xFF	; 255
    1f26:	fa 01       	movw	r30, r20
    1f28:	61 91       	ld	r22, Z+
    1f2a:	71 91       	ld	r23, Z+
    1f2c:	af 01       	movw	r20, r30
    1f2e:	80 91 ed 04 	lds	r24, 0x04ED	; 0x8004ed <__iob>
    1f32:	90 91 ee 04 	lds	r25, 0x04EE	; 0x8004ee <__iob+0x1>
    1f36:	0e 94 1d 13 	call	0x263a	; 0x263a <vfscanf>
    1f3a:	e2 e0       	ldi	r30, 0x02	; 2
    1f3c:	0c 94 78 15 	jmp	0x2af0	; 0x2af0 <__epilogue_restores__+0x20>

00001f40 <vfprintf>:
    1f40:	ab e0       	ldi	r26, 0x0B	; 11
    1f42:	b0 e0       	ldi	r27, 0x00	; 0
    1f44:	e6 ea       	ldi	r30, 0xA6	; 166
    1f46:	ff e0       	ldi	r31, 0x0F	; 15
    1f48:	0c 94 4c 15 	jmp	0x2a98	; 0x2a98 <__prologue_saves__>
    1f4c:	6c 01       	movw	r12, r24
    1f4e:	7b 01       	movw	r14, r22
    1f50:	8a 01       	movw	r16, r20
    1f52:	fc 01       	movw	r30, r24
    1f54:	17 82       	std	Z+7, r1	; 0x07
    1f56:	16 82       	std	Z+6, r1	; 0x06
    1f58:	83 81       	ldd	r24, Z+3	; 0x03
    1f5a:	81 ff       	sbrs	r24, 1
    1f5c:	cc c1       	rjmp	.+920    	; 0x22f6 <vfprintf+0x3b6>
    1f5e:	ce 01       	movw	r24, r28
    1f60:	01 96       	adiw	r24, 0x01	; 1
    1f62:	3c 01       	movw	r6, r24
    1f64:	f6 01       	movw	r30, r12
    1f66:	93 81       	ldd	r25, Z+3	; 0x03
    1f68:	f7 01       	movw	r30, r14
    1f6a:	93 fd       	sbrc	r25, 3
    1f6c:	85 91       	lpm	r24, Z+
    1f6e:	93 ff       	sbrs	r25, 3
    1f70:	81 91       	ld	r24, Z+
    1f72:	7f 01       	movw	r14, r30
    1f74:	88 23       	and	r24, r24
    1f76:	09 f4       	brne	.+2      	; 0x1f7a <vfprintf+0x3a>
    1f78:	ba c1       	rjmp	.+884    	; 0x22ee <vfprintf+0x3ae>
    1f7a:	85 32       	cpi	r24, 0x25	; 37
    1f7c:	39 f4       	brne	.+14     	; 0x1f8c <vfprintf+0x4c>
    1f7e:	93 fd       	sbrc	r25, 3
    1f80:	85 91       	lpm	r24, Z+
    1f82:	93 ff       	sbrs	r25, 3
    1f84:	81 91       	ld	r24, Z+
    1f86:	7f 01       	movw	r14, r30
    1f88:	85 32       	cpi	r24, 0x25	; 37
    1f8a:	29 f4       	brne	.+10     	; 0x1f96 <vfprintf+0x56>
    1f8c:	b6 01       	movw	r22, r12
    1f8e:	90 e0       	ldi	r25, 0x00	; 0
    1f90:	0e 94 96 14 	call	0x292c	; 0x292c <fputc>
    1f94:	e7 cf       	rjmp	.-50     	; 0x1f64 <vfprintf+0x24>
    1f96:	91 2c       	mov	r9, r1
    1f98:	21 2c       	mov	r2, r1
    1f9a:	31 2c       	mov	r3, r1
    1f9c:	ff e1       	ldi	r31, 0x1F	; 31
    1f9e:	f3 15       	cp	r31, r3
    1fa0:	d8 f0       	brcs	.+54     	; 0x1fd8 <vfprintf+0x98>
    1fa2:	8b 32       	cpi	r24, 0x2B	; 43
    1fa4:	79 f0       	breq	.+30     	; 0x1fc4 <vfprintf+0x84>
    1fa6:	38 f4       	brcc	.+14     	; 0x1fb6 <vfprintf+0x76>
    1fa8:	80 32       	cpi	r24, 0x20	; 32
    1faa:	79 f0       	breq	.+30     	; 0x1fca <vfprintf+0x8a>
    1fac:	83 32       	cpi	r24, 0x23	; 35
    1fae:	a1 f4       	brne	.+40     	; 0x1fd8 <vfprintf+0x98>
    1fb0:	23 2d       	mov	r18, r3
    1fb2:	20 61       	ori	r18, 0x10	; 16
    1fb4:	1d c0       	rjmp	.+58     	; 0x1ff0 <vfprintf+0xb0>
    1fb6:	8d 32       	cpi	r24, 0x2D	; 45
    1fb8:	61 f0       	breq	.+24     	; 0x1fd2 <vfprintf+0x92>
    1fba:	80 33       	cpi	r24, 0x30	; 48
    1fbc:	69 f4       	brne	.+26     	; 0x1fd8 <vfprintf+0x98>
    1fbe:	23 2d       	mov	r18, r3
    1fc0:	21 60       	ori	r18, 0x01	; 1
    1fc2:	16 c0       	rjmp	.+44     	; 0x1ff0 <vfprintf+0xb0>
    1fc4:	83 2d       	mov	r24, r3
    1fc6:	82 60       	ori	r24, 0x02	; 2
    1fc8:	38 2e       	mov	r3, r24
    1fca:	e3 2d       	mov	r30, r3
    1fcc:	e4 60       	ori	r30, 0x04	; 4
    1fce:	3e 2e       	mov	r3, r30
    1fd0:	2a c0       	rjmp	.+84     	; 0x2026 <vfprintf+0xe6>
    1fd2:	f3 2d       	mov	r31, r3
    1fd4:	f8 60       	ori	r31, 0x08	; 8
    1fd6:	1d c0       	rjmp	.+58     	; 0x2012 <vfprintf+0xd2>
    1fd8:	37 fc       	sbrc	r3, 7
    1fda:	2d c0       	rjmp	.+90     	; 0x2036 <vfprintf+0xf6>
    1fdc:	20 ed       	ldi	r18, 0xD0	; 208
    1fde:	28 0f       	add	r18, r24
    1fe0:	2a 30       	cpi	r18, 0x0A	; 10
    1fe2:	40 f0       	brcs	.+16     	; 0x1ff4 <vfprintf+0xb4>
    1fe4:	8e 32       	cpi	r24, 0x2E	; 46
    1fe6:	b9 f4       	brne	.+46     	; 0x2016 <vfprintf+0xd6>
    1fe8:	36 fc       	sbrc	r3, 6
    1fea:	81 c1       	rjmp	.+770    	; 0x22ee <vfprintf+0x3ae>
    1fec:	23 2d       	mov	r18, r3
    1fee:	20 64       	ori	r18, 0x40	; 64
    1ff0:	32 2e       	mov	r3, r18
    1ff2:	19 c0       	rjmp	.+50     	; 0x2026 <vfprintf+0xe6>
    1ff4:	36 fe       	sbrs	r3, 6
    1ff6:	06 c0       	rjmp	.+12     	; 0x2004 <vfprintf+0xc4>
    1ff8:	8a e0       	ldi	r24, 0x0A	; 10
    1ffa:	98 9e       	mul	r9, r24
    1ffc:	20 0d       	add	r18, r0
    1ffe:	11 24       	eor	r1, r1
    2000:	92 2e       	mov	r9, r18
    2002:	11 c0       	rjmp	.+34     	; 0x2026 <vfprintf+0xe6>
    2004:	ea e0       	ldi	r30, 0x0A	; 10
    2006:	2e 9e       	mul	r2, r30
    2008:	20 0d       	add	r18, r0
    200a:	11 24       	eor	r1, r1
    200c:	22 2e       	mov	r2, r18
    200e:	f3 2d       	mov	r31, r3
    2010:	f0 62       	ori	r31, 0x20	; 32
    2012:	3f 2e       	mov	r3, r31
    2014:	08 c0       	rjmp	.+16     	; 0x2026 <vfprintf+0xe6>
    2016:	8c 36       	cpi	r24, 0x6C	; 108
    2018:	21 f4       	brne	.+8      	; 0x2022 <vfprintf+0xe2>
    201a:	83 2d       	mov	r24, r3
    201c:	80 68       	ori	r24, 0x80	; 128
    201e:	38 2e       	mov	r3, r24
    2020:	02 c0       	rjmp	.+4      	; 0x2026 <vfprintf+0xe6>
    2022:	88 36       	cpi	r24, 0x68	; 104
    2024:	41 f4       	brne	.+16     	; 0x2036 <vfprintf+0xf6>
    2026:	f7 01       	movw	r30, r14
    2028:	93 fd       	sbrc	r25, 3
    202a:	85 91       	lpm	r24, Z+
    202c:	93 ff       	sbrs	r25, 3
    202e:	81 91       	ld	r24, Z+
    2030:	7f 01       	movw	r14, r30
    2032:	81 11       	cpse	r24, r1
    2034:	b3 cf       	rjmp	.-154    	; 0x1f9c <vfprintf+0x5c>
    2036:	98 2f       	mov	r25, r24
    2038:	9f 7d       	andi	r25, 0xDF	; 223
    203a:	95 54       	subi	r25, 0x45	; 69
    203c:	93 30       	cpi	r25, 0x03	; 3
    203e:	28 f4       	brcc	.+10     	; 0x204a <vfprintf+0x10a>
    2040:	0c 5f       	subi	r16, 0xFC	; 252
    2042:	1f 4f       	sbci	r17, 0xFF	; 255
    2044:	9f e3       	ldi	r25, 0x3F	; 63
    2046:	99 83       	std	Y+1, r25	; 0x01
    2048:	0d c0       	rjmp	.+26     	; 0x2064 <vfprintf+0x124>
    204a:	83 36       	cpi	r24, 0x63	; 99
    204c:	31 f0       	breq	.+12     	; 0x205a <vfprintf+0x11a>
    204e:	83 37       	cpi	r24, 0x73	; 115
    2050:	71 f0       	breq	.+28     	; 0x206e <vfprintf+0x12e>
    2052:	83 35       	cpi	r24, 0x53	; 83
    2054:	09 f0       	breq	.+2      	; 0x2058 <vfprintf+0x118>
    2056:	59 c0       	rjmp	.+178    	; 0x210a <vfprintf+0x1ca>
    2058:	21 c0       	rjmp	.+66     	; 0x209c <vfprintf+0x15c>
    205a:	f8 01       	movw	r30, r16
    205c:	80 81       	ld	r24, Z
    205e:	89 83       	std	Y+1, r24	; 0x01
    2060:	0e 5f       	subi	r16, 0xFE	; 254
    2062:	1f 4f       	sbci	r17, 0xFF	; 255
    2064:	88 24       	eor	r8, r8
    2066:	83 94       	inc	r8
    2068:	91 2c       	mov	r9, r1
    206a:	53 01       	movw	r10, r6
    206c:	13 c0       	rjmp	.+38     	; 0x2094 <vfprintf+0x154>
    206e:	28 01       	movw	r4, r16
    2070:	f2 e0       	ldi	r31, 0x02	; 2
    2072:	4f 0e       	add	r4, r31
    2074:	51 1c       	adc	r5, r1
    2076:	f8 01       	movw	r30, r16
    2078:	a0 80       	ld	r10, Z
    207a:	b1 80       	ldd	r11, Z+1	; 0x01
    207c:	36 fe       	sbrs	r3, 6
    207e:	03 c0       	rjmp	.+6      	; 0x2086 <vfprintf+0x146>
    2080:	69 2d       	mov	r22, r9
    2082:	70 e0       	ldi	r23, 0x00	; 0
    2084:	02 c0       	rjmp	.+4      	; 0x208a <vfprintf+0x14a>
    2086:	6f ef       	ldi	r22, 0xFF	; 255
    2088:	7f ef       	ldi	r23, 0xFF	; 255
    208a:	c5 01       	movw	r24, r10
    208c:	0e 94 4d 14 	call	0x289a	; 0x289a <strnlen>
    2090:	4c 01       	movw	r8, r24
    2092:	82 01       	movw	r16, r4
    2094:	f3 2d       	mov	r31, r3
    2096:	ff 77       	andi	r31, 0x7F	; 127
    2098:	3f 2e       	mov	r3, r31
    209a:	16 c0       	rjmp	.+44     	; 0x20c8 <vfprintf+0x188>
    209c:	28 01       	movw	r4, r16
    209e:	22 e0       	ldi	r18, 0x02	; 2
    20a0:	42 0e       	add	r4, r18
    20a2:	51 1c       	adc	r5, r1
    20a4:	f8 01       	movw	r30, r16
    20a6:	a0 80       	ld	r10, Z
    20a8:	b1 80       	ldd	r11, Z+1	; 0x01
    20aa:	36 fe       	sbrs	r3, 6
    20ac:	03 c0       	rjmp	.+6      	; 0x20b4 <vfprintf+0x174>
    20ae:	69 2d       	mov	r22, r9
    20b0:	70 e0       	ldi	r23, 0x00	; 0
    20b2:	02 c0       	rjmp	.+4      	; 0x20b8 <vfprintf+0x178>
    20b4:	6f ef       	ldi	r22, 0xFF	; 255
    20b6:	7f ef       	ldi	r23, 0xFF	; 255
    20b8:	c5 01       	movw	r24, r10
    20ba:	0e 94 42 14 	call	0x2884	; 0x2884 <strnlen_P>
    20be:	4c 01       	movw	r8, r24
    20c0:	f3 2d       	mov	r31, r3
    20c2:	f0 68       	ori	r31, 0x80	; 128
    20c4:	3f 2e       	mov	r3, r31
    20c6:	82 01       	movw	r16, r4
    20c8:	33 fc       	sbrc	r3, 3
    20ca:	1b c0       	rjmp	.+54     	; 0x2102 <vfprintf+0x1c2>
    20cc:	82 2d       	mov	r24, r2
    20ce:	90 e0       	ldi	r25, 0x00	; 0
    20d0:	88 16       	cp	r8, r24
    20d2:	99 06       	cpc	r9, r25
    20d4:	b0 f4       	brcc	.+44     	; 0x2102 <vfprintf+0x1c2>
    20d6:	b6 01       	movw	r22, r12
    20d8:	80 e2       	ldi	r24, 0x20	; 32
    20da:	90 e0       	ldi	r25, 0x00	; 0
    20dc:	0e 94 96 14 	call	0x292c	; 0x292c <fputc>
    20e0:	2a 94       	dec	r2
    20e2:	f4 cf       	rjmp	.-24     	; 0x20cc <vfprintf+0x18c>
    20e4:	f5 01       	movw	r30, r10
    20e6:	37 fc       	sbrc	r3, 7
    20e8:	85 91       	lpm	r24, Z+
    20ea:	37 fe       	sbrs	r3, 7
    20ec:	81 91       	ld	r24, Z+
    20ee:	5f 01       	movw	r10, r30
    20f0:	b6 01       	movw	r22, r12
    20f2:	90 e0       	ldi	r25, 0x00	; 0
    20f4:	0e 94 96 14 	call	0x292c	; 0x292c <fputc>
    20f8:	21 10       	cpse	r2, r1
    20fa:	2a 94       	dec	r2
    20fc:	21 e0       	ldi	r18, 0x01	; 1
    20fe:	82 1a       	sub	r8, r18
    2100:	91 08       	sbc	r9, r1
    2102:	81 14       	cp	r8, r1
    2104:	91 04       	cpc	r9, r1
    2106:	71 f7       	brne	.-36     	; 0x20e4 <vfprintf+0x1a4>
    2108:	e8 c0       	rjmp	.+464    	; 0x22da <vfprintf+0x39a>
    210a:	84 36       	cpi	r24, 0x64	; 100
    210c:	11 f0       	breq	.+4      	; 0x2112 <vfprintf+0x1d2>
    210e:	89 36       	cpi	r24, 0x69	; 105
    2110:	41 f5       	brne	.+80     	; 0x2162 <vfprintf+0x222>
    2112:	f8 01       	movw	r30, r16
    2114:	37 fe       	sbrs	r3, 7
    2116:	07 c0       	rjmp	.+14     	; 0x2126 <vfprintf+0x1e6>
    2118:	60 81       	ld	r22, Z
    211a:	71 81       	ldd	r23, Z+1	; 0x01
    211c:	82 81       	ldd	r24, Z+2	; 0x02
    211e:	93 81       	ldd	r25, Z+3	; 0x03
    2120:	0c 5f       	subi	r16, 0xFC	; 252
    2122:	1f 4f       	sbci	r17, 0xFF	; 255
    2124:	08 c0       	rjmp	.+16     	; 0x2136 <vfprintf+0x1f6>
    2126:	60 81       	ld	r22, Z
    2128:	71 81       	ldd	r23, Z+1	; 0x01
    212a:	07 2e       	mov	r0, r23
    212c:	00 0c       	add	r0, r0
    212e:	88 0b       	sbc	r24, r24
    2130:	99 0b       	sbc	r25, r25
    2132:	0e 5f       	subi	r16, 0xFE	; 254
    2134:	1f 4f       	sbci	r17, 0xFF	; 255
    2136:	f3 2d       	mov	r31, r3
    2138:	ff 76       	andi	r31, 0x6F	; 111
    213a:	3f 2e       	mov	r3, r31
    213c:	97 ff       	sbrs	r25, 7
    213e:	09 c0       	rjmp	.+18     	; 0x2152 <vfprintf+0x212>
    2140:	90 95       	com	r25
    2142:	80 95       	com	r24
    2144:	70 95       	com	r23
    2146:	61 95       	neg	r22
    2148:	7f 4f       	sbci	r23, 0xFF	; 255
    214a:	8f 4f       	sbci	r24, 0xFF	; 255
    214c:	9f 4f       	sbci	r25, 0xFF	; 255
    214e:	f0 68       	ori	r31, 0x80	; 128
    2150:	3f 2e       	mov	r3, r31
    2152:	2a e0       	ldi	r18, 0x0A	; 10
    2154:	30 e0       	ldi	r19, 0x00	; 0
    2156:	a3 01       	movw	r20, r6
    2158:	0e 94 eb 14 	call	0x29d6	; 0x29d6 <__ultoa_invert>
    215c:	88 2e       	mov	r8, r24
    215e:	86 18       	sub	r8, r6
    2160:	45 c0       	rjmp	.+138    	; 0x21ec <vfprintf+0x2ac>
    2162:	85 37       	cpi	r24, 0x75	; 117
    2164:	31 f4       	brne	.+12     	; 0x2172 <vfprintf+0x232>
    2166:	23 2d       	mov	r18, r3
    2168:	2f 7e       	andi	r18, 0xEF	; 239
    216a:	b2 2e       	mov	r11, r18
    216c:	2a e0       	ldi	r18, 0x0A	; 10
    216e:	30 e0       	ldi	r19, 0x00	; 0
    2170:	25 c0       	rjmp	.+74     	; 0x21bc <vfprintf+0x27c>
    2172:	93 2d       	mov	r25, r3
    2174:	99 7f       	andi	r25, 0xF9	; 249
    2176:	b9 2e       	mov	r11, r25
    2178:	8f 36       	cpi	r24, 0x6F	; 111
    217a:	c1 f0       	breq	.+48     	; 0x21ac <vfprintf+0x26c>
    217c:	18 f4       	brcc	.+6      	; 0x2184 <vfprintf+0x244>
    217e:	88 35       	cpi	r24, 0x58	; 88
    2180:	79 f0       	breq	.+30     	; 0x21a0 <vfprintf+0x260>
    2182:	b5 c0       	rjmp	.+362    	; 0x22ee <vfprintf+0x3ae>
    2184:	80 37       	cpi	r24, 0x70	; 112
    2186:	19 f0       	breq	.+6      	; 0x218e <vfprintf+0x24e>
    2188:	88 37       	cpi	r24, 0x78	; 120
    218a:	21 f0       	breq	.+8      	; 0x2194 <vfprintf+0x254>
    218c:	b0 c0       	rjmp	.+352    	; 0x22ee <vfprintf+0x3ae>
    218e:	e9 2f       	mov	r30, r25
    2190:	e0 61       	ori	r30, 0x10	; 16
    2192:	be 2e       	mov	r11, r30
    2194:	b4 fe       	sbrs	r11, 4
    2196:	0d c0       	rjmp	.+26     	; 0x21b2 <vfprintf+0x272>
    2198:	fb 2d       	mov	r31, r11
    219a:	f4 60       	ori	r31, 0x04	; 4
    219c:	bf 2e       	mov	r11, r31
    219e:	09 c0       	rjmp	.+18     	; 0x21b2 <vfprintf+0x272>
    21a0:	34 fe       	sbrs	r3, 4
    21a2:	0a c0       	rjmp	.+20     	; 0x21b8 <vfprintf+0x278>
    21a4:	29 2f       	mov	r18, r25
    21a6:	26 60       	ori	r18, 0x06	; 6
    21a8:	b2 2e       	mov	r11, r18
    21aa:	06 c0       	rjmp	.+12     	; 0x21b8 <vfprintf+0x278>
    21ac:	28 e0       	ldi	r18, 0x08	; 8
    21ae:	30 e0       	ldi	r19, 0x00	; 0
    21b0:	05 c0       	rjmp	.+10     	; 0x21bc <vfprintf+0x27c>
    21b2:	20 e1       	ldi	r18, 0x10	; 16
    21b4:	30 e0       	ldi	r19, 0x00	; 0
    21b6:	02 c0       	rjmp	.+4      	; 0x21bc <vfprintf+0x27c>
    21b8:	20 e1       	ldi	r18, 0x10	; 16
    21ba:	32 e0       	ldi	r19, 0x02	; 2
    21bc:	f8 01       	movw	r30, r16
    21be:	b7 fe       	sbrs	r11, 7
    21c0:	07 c0       	rjmp	.+14     	; 0x21d0 <vfprintf+0x290>
    21c2:	60 81       	ld	r22, Z
    21c4:	71 81       	ldd	r23, Z+1	; 0x01
    21c6:	82 81       	ldd	r24, Z+2	; 0x02
    21c8:	93 81       	ldd	r25, Z+3	; 0x03
    21ca:	0c 5f       	subi	r16, 0xFC	; 252
    21cc:	1f 4f       	sbci	r17, 0xFF	; 255
    21ce:	06 c0       	rjmp	.+12     	; 0x21dc <vfprintf+0x29c>
    21d0:	60 81       	ld	r22, Z
    21d2:	71 81       	ldd	r23, Z+1	; 0x01
    21d4:	80 e0       	ldi	r24, 0x00	; 0
    21d6:	90 e0       	ldi	r25, 0x00	; 0
    21d8:	0e 5f       	subi	r16, 0xFE	; 254
    21da:	1f 4f       	sbci	r17, 0xFF	; 255
    21dc:	a3 01       	movw	r20, r6
    21de:	0e 94 eb 14 	call	0x29d6	; 0x29d6 <__ultoa_invert>
    21e2:	88 2e       	mov	r8, r24
    21e4:	86 18       	sub	r8, r6
    21e6:	fb 2d       	mov	r31, r11
    21e8:	ff 77       	andi	r31, 0x7F	; 127
    21ea:	3f 2e       	mov	r3, r31
    21ec:	36 fe       	sbrs	r3, 6
    21ee:	0d c0       	rjmp	.+26     	; 0x220a <vfprintf+0x2ca>
    21f0:	23 2d       	mov	r18, r3
    21f2:	2e 7f       	andi	r18, 0xFE	; 254
    21f4:	a2 2e       	mov	r10, r18
    21f6:	89 14       	cp	r8, r9
    21f8:	58 f4       	brcc	.+22     	; 0x2210 <vfprintf+0x2d0>
    21fa:	34 fe       	sbrs	r3, 4
    21fc:	0b c0       	rjmp	.+22     	; 0x2214 <vfprintf+0x2d4>
    21fe:	32 fc       	sbrc	r3, 2
    2200:	09 c0       	rjmp	.+18     	; 0x2214 <vfprintf+0x2d4>
    2202:	83 2d       	mov	r24, r3
    2204:	8e 7e       	andi	r24, 0xEE	; 238
    2206:	a8 2e       	mov	r10, r24
    2208:	05 c0       	rjmp	.+10     	; 0x2214 <vfprintf+0x2d4>
    220a:	b8 2c       	mov	r11, r8
    220c:	a3 2c       	mov	r10, r3
    220e:	03 c0       	rjmp	.+6      	; 0x2216 <vfprintf+0x2d6>
    2210:	b8 2c       	mov	r11, r8
    2212:	01 c0       	rjmp	.+2      	; 0x2216 <vfprintf+0x2d6>
    2214:	b9 2c       	mov	r11, r9
    2216:	a4 fe       	sbrs	r10, 4
    2218:	0f c0       	rjmp	.+30     	; 0x2238 <vfprintf+0x2f8>
    221a:	fe 01       	movw	r30, r28
    221c:	e8 0d       	add	r30, r8
    221e:	f1 1d       	adc	r31, r1
    2220:	80 81       	ld	r24, Z
    2222:	80 33       	cpi	r24, 0x30	; 48
    2224:	21 f4       	brne	.+8      	; 0x222e <vfprintf+0x2ee>
    2226:	9a 2d       	mov	r25, r10
    2228:	99 7e       	andi	r25, 0xE9	; 233
    222a:	a9 2e       	mov	r10, r25
    222c:	09 c0       	rjmp	.+18     	; 0x2240 <vfprintf+0x300>
    222e:	a2 fe       	sbrs	r10, 2
    2230:	06 c0       	rjmp	.+12     	; 0x223e <vfprintf+0x2fe>
    2232:	b3 94       	inc	r11
    2234:	b3 94       	inc	r11
    2236:	04 c0       	rjmp	.+8      	; 0x2240 <vfprintf+0x300>
    2238:	8a 2d       	mov	r24, r10
    223a:	86 78       	andi	r24, 0x86	; 134
    223c:	09 f0       	breq	.+2      	; 0x2240 <vfprintf+0x300>
    223e:	b3 94       	inc	r11
    2240:	a3 fc       	sbrc	r10, 3
    2242:	11 c0       	rjmp	.+34     	; 0x2266 <vfprintf+0x326>
    2244:	a0 fe       	sbrs	r10, 0
    2246:	06 c0       	rjmp	.+12     	; 0x2254 <vfprintf+0x314>
    2248:	b2 14       	cp	r11, r2
    224a:	88 f4       	brcc	.+34     	; 0x226e <vfprintf+0x32e>
    224c:	28 0c       	add	r2, r8
    224e:	92 2c       	mov	r9, r2
    2250:	9b 18       	sub	r9, r11
    2252:	0e c0       	rjmp	.+28     	; 0x2270 <vfprintf+0x330>
    2254:	b2 14       	cp	r11, r2
    2256:	60 f4       	brcc	.+24     	; 0x2270 <vfprintf+0x330>
    2258:	b6 01       	movw	r22, r12
    225a:	80 e2       	ldi	r24, 0x20	; 32
    225c:	90 e0       	ldi	r25, 0x00	; 0
    225e:	0e 94 96 14 	call	0x292c	; 0x292c <fputc>
    2262:	b3 94       	inc	r11
    2264:	f7 cf       	rjmp	.-18     	; 0x2254 <vfprintf+0x314>
    2266:	b2 14       	cp	r11, r2
    2268:	18 f4       	brcc	.+6      	; 0x2270 <vfprintf+0x330>
    226a:	2b 18       	sub	r2, r11
    226c:	02 c0       	rjmp	.+4      	; 0x2272 <vfprintf+0x332>
    226e:	98 2c       	mov	r9, r8
    2270:	21 2c       	mov	r2, r1
    2272:	a4 fe       	sbrs	r10, 4
    2274:	10 c0       	rjmp	.+32     	; 0x2296 <vfprintf+0x356>
    2276:	b6 01       	movw	r22, r12
    2278:	80 e3       	ldi	r24, 0x30	; 48
    227a:	90 e0       	ldi	r25, 0x00	; 0
    227c:	0e 94 96 14 	call	0x292c	; 0x292c <fputc>
    2280:	a2 fe       	sbrs	r10, 2
    2282:	17 c0       	rjmp	.+46     	; 0x22b2 <vfprintf+0x372>
    2284:	a1 fc       	sbrc	r10, 1
    2286:	03 c0       	rjmp	.+6      	; 0x228e <vfprintf+0x34e>
    2288:	88 e7       	ldi	r24, 0x78	; 120
    228a:	90 e0       	ldi	r25, 0x00	; 0
    228c:	02 c0       	rjmp	.+4      	; 0x2292 <vfprintf+0x352>
    228e:	88 e5       	ldi	r24, 0x58	; 88
    2290:	90 e0       	ldi	r25, 0x00	; 0
    2292:	b6 01       	movw	r22, r12
    2294:	0c c0       	rjmp	.+24     	; 0x22ae <vfprintf+0x36e>
    2296:	8a 2d       	mov	r24, r10
    2298:	86 78       	andi	r24, 0x86	; 134
    229a:	59 f0       	breq	.+22     	; 0x22b2 <vfprintf+0x372>
    229c:	a1 fe       	sbrs	r10, 1
    229e:	02 c0       	rjmp	.+4      	; 0x22a4 <vfprintf+0x364>
    22a0:	8b e2       	ldi	r24, 0x2B	; 43
    22a2:	01 c0       	rjmp	.+2      	; 0x22a6 <vfprintf+0x366>
    22a4:	80 e2       	ldi	r24, 0x20	; 32
    22a6:	a7 fc       	sbrc	r10, 7
    22a8:	8d e2       	ldi	r24, 0x2D	; 45
    22aa:	b6 01       	movw	r22, r12
    22ac:	90 e0       	ldi	r25, 0x00	; 0
    22ae:	0e 94 96 14 	call	0x292c	; 0x292c <fputc>
    22b2:	89 14       	cp	r8, r9
    22b4:	38 f4       	brcc	.+14     	; 0x22c4 <vfprintf+0x384>
    22b6:	b6 01       	movw	r22, r12
    22b8:	80 e3       	ldi	r24, 0x30	; 48
    22ba:	90 e0       	ldi	r25, 0x00	; 0
    22bc:	0e 94 96 14 	call	0x292c	; 0x292c <fputc>
    22c0:	9a 94       	dec	r9
    22c2:	f7 cf       	rjmp	.-18     	; 0x22b2 <vfprintf+0x372>
    22c4:	8a 94       	dec	r8
    22c6:	f3 01       	movw	r30, r6
    22c8:	e8 0d       	add	r30, r8
    22ca:	f1 1d       	adc	r31, r1
    22cc:	80 81       	ld	r24, Z
    22ce:	b6 01       	movw	r22, r12
    22d0:	90 e0       	ldi	r25, 0x00	; 0
    22d2:	0e 94 96 14 	call	0x292c	; 0x292c <fputc>
    22d6:	81 10       	cpse	r8, r1
    22d8:	f5 cf       	rjmp	.-22     	; 0x22c4 <vfprintf+0x384>
    22da:	22 20       	and	r2, r2
    22dc:	09 f4       	brne	.+2      	; 0x22e0 <vfprintf+0x3a0>
    22de:	42 ce       	rjmp	.-892    	; 0x1f64 <vfprintf+0x24>
    22e0:	b6 01       	movw	r22, r12
    22e2:	80 e2       	ldi	r24, 0x20	; 32
    22e4:	90 e0       	ldi	r25, 0x00	; 0
    22e6:	0e 94 96 14 	call	0x292c	; 0x292c <fputc>
    22ea:	2a 94       	dec	r2
    22ec:	f6 cf       	rjmp	.-20     	; 0x22da <vfprintf+0x39a>
    22ee:	f6 01       	movw	r30, r12
    22f0:	86 81       	ldd	r24, Z+6	; 0x06
    22f2:	97 81       	ldd	r25, Z+7	; 0x07
    22f4:	02 c0       	rjmp	.+4      	; 0x22fa <vfprintf+0x3ba>
    22f6:	8f ef       	ldi	r24, 0xFF	; 255
    22f8:	9f ef       	ldi	r25, 0xFF	; 255
    22fa:	2b 96       	adiw	r28, 0x0b	; 11
    22fc:	e2 e1       	ldi	r30, 0x12	; 18
    22fe:	0c 94 68 15 	jmp	0x2ad0	; 0x2ad0 <__epilogue_restores__>

00002302 <putval>:
    2302:	20 fd       	sbrc	r18, 0
    2304:	09 c0       	rjmp	.+18     	; 0x2318 <putval+0x16>
    2306:	fc 01       	movw	r30, r24
    2308:	23 fd       	sbrc	r18, 3
    230a:	05 c0       	rjmp	.+10     	; 0x2316 <putval+0x14>
    230c:	22 ff       	sbrs	r18, 2
    230e:	02 c0       	rjmp	.+4      	; 0x2314 <putval+0x12>
    2310:	73 83       	std	Z+3, r23	; 0x03
    2312:	62 83       	std	Z+2, r22	; 0x02
    2314:	51 83       	std	Z+1, r21	; 0x01
    2316:	40 83       	st	Z, r20
    2318:	08 95       	ret

0000231a <mulacc>:
    231a:	44 fd       	sbrc	r20, 4
    231c:	17 c0       	rjmp	.+46     	; 0x234c <mulacc+0x32>
    231e:	46 fd       	sbrc	r20, 6
    2320:	17 c0       	rjmp	.+46     	; 0x2350 <mulacc+0x36>
    2322:	ab 01       	movw	r20, r22
    2324:	bc 01       	movw	r22, r24
    2326:	da 01       	movw	r26, r20
    2328:	fb 01       	movw	r30, r22
    232a:	aa 0f       	add	r26, r26
    232c:	bb 1f       	adc	r27, r27
    232e:	ee 1f       	adc	r30, r30
    2330:	ff 1f       	adc	r31, r31
    2332:	10 94       	com	r1
    2334:	d1 f7       	brne	.-12     	; 0x232a <mulacc+0x10>
    2336:	4a 0f       	add	r20, r26
    2338:	5b 1f       	adc	r21, r27
    233a:	6e 1f       	adc	r22, r30
    233c:	7f 1f       	adc	r23, r31
    233e:	cb 01       	movw	r24, r22
    2340:	ba 01       	movw	r22, r20
    2342:	66 0f       	add	r22, r22
    2344:	77 1f       	adc	r23, r23
    2346:	88 1f       	adc	r24, r24
    2348:	99 1f       	adc	r25, r25
    234a:	09 c0       	rjmp	.+18     	; 0x235e <mulacc+0x44>
    234c:	33 e0       	ldi	r19, 0x03	; 3
    234e:	01 c0       	rjmp	.+2      	; 0x2352 <mulacc+0x38>
    2350:	34 e0       	ldi	r19, 0x04	; 4
    2352:	66 0f       	add	r22, r22
    2354:	77 1f       	adc	r23, r23
    2356:	88 1f       	adc	r24, r24
    2358:	99 1f       	adc	r25, r25
    235a:	31 50       	subi	r19, 0x01	; 1
    235c:	d1 f7       	brne	.-12     	; 0x2352 <mulacc+0x38>
    235e:	62 0f       	add	r22, r18
    2360:	71 1d       	adc	r23, r1
    2362:	81 1d       	adc	r24, r1
    2364:	91 1d       	adc	r25, r1
    2366:	08 95       	ret

00002368 <skip_spaces>:
    2368:	0f 93       	push	r16
    236a:	1f 93       	push	r17
    236c:	cf 93       	push	r28
    236e:	df 93       	push	r29
    2370:	8c 01       	movw	r16, r24
    2372:	c8 01       	movw	r24, r16
    2374:	0e 94 58 14 	call	0x28b0	; 0x28b0 <fgetc>
    2378:	ec 01       	movw	r28, r24
    237a:	97 fd       	sbrc	r25, 7
    237c:	08 c0       	rjmp	.+16     	; 0x238e <skip_spaces+0x26>
    237e:	0e 94 2e 14 	call	0x285c	; 0x285c <isspace>
    2382:	89 2b       	or	r24, r25
    2384:	b1 f7       	brne	.-20     	; 0x2372 <skip_spaces+0xa>
    2386:	b8 01       	movw	r22, r16
    2388:	ce 01       	movw	r24, r28
    238a:	0e 94 d2 14 	call	0x29a4	; 0x29a4 <ungetc>
    238e:	ce 01       	movw	r24, r28
    2390:	df 91       	pop	r29
    2392:	cf 91       	pop	r28
    2394:	1f 91       	pop	r17
    2396:	0f 91       	pop	r16
    2398:	08 95       	ret

0000239a <conv_int>:
    239a:	8f 92       	push	r8
    239c:	9f 92       	push	r9
    239e:	af 92       	push	r10
    23a0:	bf 92       	push	r11
    23a2:	ef 92       	push	r14
    23a4:	ff 92       	push	r15
    23a6:	0f 93       	push	r16
    23a8:	1f 93       	push	r17
    23aa:	cf 93       	push	r28
    23ac:	df 93       	push	r29
    23ae:	8c 01       	movw	r16, r24
    23b0:	d6 2f       	mov	r29, r22
    23b2:	7a 01       	movw	r14, r20
    23b4:	b2 2e       	mov	r11, r18
    23b6:	0e 94 58 14 	call	0x28b0	; 0x28b0 <fgetc>
    23ba:	9c 01       	movw	r18, r24
    23bc:	33 27       	eor	r19, r19
    23be:	2b 32       	cpi	r18, 0x2B	; 43
    23c0:	31 05       	cpc	r19, r1
    23c2:	31 f0       	breq	.+12     	; 0x23d0 <conv_int+0x36>
    23c4:	2d 32       	cpi	r18, 0x2D	; 45
    23c6:	31 05       	cpc	r19, r1
    23c8:	61 f4       	brne	.+24     	; 0x23e2 <conv_int+0x48>
    23ca:	8b 2d       	mov	r24, r11
    23cc:	80 68       	ori	r24, 0x80	; 128
    23ce:	b8 2e       	mov	r11, r24
    23d0:	d1 50       	subi	r29, 0x01	; 1
    23d2:	11 f4       	brne	.+4      	; 0x23d8 <conv_int+0x3e>
    23d4:	80 e0       	ldi	r24, 0x00	; 0
    23d6:	68 c0       	rjmp	.+208    	; 0x24a8 <conv_int+0x10e>
    23d8:	c8 01       	movw	r24, r16
    23da:	0e 94 58 14 	call	0x28b0	; 0x28b0 <fgetc>
    23de:	97 fd       	sbrc	r25, 7
    23e0:	f9 cf       	rjmp	.-14     	; 0x23d4 <conv_int+0x3a>
    23e2:	cb 2d       	mov	r28, r11
    23e4:	cd 7f       	andi	r28, 0xFD	; 253
    23e6:	2b 2d       	mov	r18, r11
    23e8:	20 73       	andi	r18, 0x30	; 48
    23ea:	09 f5       	brne	.+66     	; 0x242e <conv_int+0x94>
    23ec:	80 33       	cpi	r24, 0x30	; 48
    23ee:	f9 f4       	brne	.+62     	; 0x242e <conv_int+0x94>
    23f0:	aa 24       	eor	r10, r10
    23f2:	aa 94       	dec	r10
    23f4:	ad 0e       	add	r10, r29
    23f6:	09 f4       	brne	.+2      	; 0x23fa <conv_int+0x60>
    23f8:	43 c0       	rjmp	.+134    	; 0x2480 <conv_int+0xe6>
    23fa:	c8 01       	movw	r24, r16
    23fc:	0e 94 58 14 	call	0x28b0	; 0x28b0 <fgetc>
    2400:	97 fd       	sbrc	r25, 7
    2402:	3e c0       	rjmp	.+124    	; 0x2480 <conv_int+0xe6>
    2404:	9c 01       	movw	r18, r24
    2406:	2f 7d       	andi	r18, 0xDF	; 223
    2408:	33 27       	eor	r19, r19
    240a:	28 35       	cpi	r18, 0x58	; 88
    240c:	31 05       	cpc	r19, r1
    240e:	49 f4       	brne	.+18     	; 0x2422 <conv_int+0x88>
    2410:	c2 64       	ori	r28, 0x42	; 66
    2412:	d2 50       	subi	r29, 0x02	; 2
    2414:	a9 f1       	breq	.+106    	; 0x2480 <conv_int+0xe6>
    2416:	c8 01       	movw	r24, r16
    2418:	0e 94 58 14 	call	0x28b0	; 0x28b0 <fgetc>
    241c:	97 ff       	sbrs	r25, 7
    241e:	07 c0       	rjmp	.+14     	; 0x242e <conv_int+0x94>
    2420:	2f c0       	rjmp	.+94     	; 0x2480 <conv_int+0xe6>
    2422:	b6 fe       	sbrs	r11, 6
    2424:	02 c0       	rjmp	.+4      	; 0x242a <conv_int+0x90>
    2426:	c2 60       	ori	r28, 0x02	; 2
    2428:	01 c0       	rjmp	.+2      	; 0x242c <conv_int+0x92>
    242a:	c2 61       	ori	r28, 0x12	; 18
    242c:	da 2d       	mov	r29, r10
    242e:	81 2c       	mov	r8, r1
    2430:	91 2c       	mov	r9, r1
    2432:	54 01       	movw	r10, r8
    2434:	20 ed       	ldi	r18, 0xD0	; 208
    2436:	28 0f       	add	r18, r24
    2438:	28 30       	cpi	r18, 0x08	; 8
    243a:	80 f0       	brcs	.+32     	; 0x245c <conv_int+0xc2>
    243c:	c4 ff       	sbrs	r28, 4
    243e:	04 c0       	rjmp	.+8      	; 0x2448 <conv_int+0xae>
    2440:	b8 01       	movw	r22, r16
    2442:	0e 94 d2 14 	call	0x29a4	; 0x29a4 <ungetc>
    2446:	19 c0       	rjmp	.+50     	; 0x247a <conv_int+0xe0>
    2448:	2a 30       	cpi	r18, 0x0A	; 10
    244a:	40 f0       	brcs	.+16     	; 0x245c <conv_int+0xc2>
    244c:	c6 ff       	sbrs	r28, 6
    244e:	f8 cf       	rjmp	.-16     	; 0x2440 <conv_int+0xa6>
    2450:	2f 7d       	andi	r18, 0xDF	; 223
    2452:	3f ee       	ldi	r19, 0xEF	; 239
    2454:	32 0f       	add	r19, r18
    2456:	36 30       	cpi	r19, 0x06	; 6
    2458:	98 f7       	brcc	.-26     	; 0x2440 <conv_int+0xa6>
    245a:	27 50       	subi	r18, 0x07	; 7
    245c:	4c 2f       	mov	r20, r28
    245e:	c5 01       	movw	r24, r10
    2460:	b4 01       	movw	r22, r8
    2462:	0e 94 8d 11 	call	0x231a	; 0x231a <mulacc>
    2466:	4b 01       	movw	r8, r22
    2468:	5c 01       	movw	r10, r24
    246a:	c2 60       	ori	r28, 0x02	; 2
    246c:	d1 50       	subi	r29, 0x01	; 1
    246e:	59 f0       	breq	.+22     	; 0x2486 <conv_int+0xec>
    2470:	c8 01       	movw	r24, r16
    2472:	0e 94 58 14 	call	0x28b0	; 0x28b0 <fgetc>
    2476:	97 ff       	sbrs	r25, 7
    2478:	dd cf       	rjmp	.-70     	; 0x2434 <conv_int+0x9a>
    247a:	c1 fd       	sbrc	r28, 1
    247c:	04 c0       	rjmp	.+8      	; 0x2486 <conv_int+0xec>
    247e:	aa cf       	rjmp	.-172    	; 0x23d4 <conv_int+0x3a>
    2480:	81 2c       	mov	r8, r1
    2482:	91 2c       	mov	r9, r1
    2484:	54 01       	movw	r10, r8
    2486:	c7 ff       	sbrs	r28, 7
    2488:	08 c0       	rjmp	.+16     	; 0x249a <conv_int+0x100>
    248a:	b0 94       	com	r11
    248c:	a0 94       	com	r10
    248e:	90 94       	com	r9
    2490:	80 94       	com	r8
    2492:	81 1c       	adc	r8, r1
    2494:	91 1c       	adc	r9, r1
    2496:	a1 1c       	adc	r10, r1
    2498:	b1 1c       	adc	r11, r1
    249a:	2c 2f       	mov	r18, r28
    249c:	b5 01       	movw	r22, r10
    249e:	a4 01       	movw	r20, r8
    24a0:	c7 01       	movw	r24, r14
    24a2:	0e 94 81 11 	call	0x2302	; 0x2302 <putval>
    24a6:	81 e0       	ldi	r24, 0x01	; 1
    24a8:	df 91       	pop	r29
    24aa:	cf 91       	pop	r28
    24ac:	1f 91       	pop	r17
    24ae:	0f 91       	pop	r16
    24b0:	ff 90       	pop	r15
    24b2:	ef 90       	pop	r14
    24b4:	bf 90       	pop	r11
    24b6:	af 90       	pop	r10
    24b8:	9f 90       	pop	r9
    24ba:	8f 90       	pop	r8
    24bc:	08 95       	ret

000024be <conv_brk>:
    24be:	a0 e2       	ldi	r26, 0x20	; 32
    24c0:	b0 e0       	ldi	r27, 0x00	; 0
    24c2:	e5 e6       	ldi	r30, 0x65	; 101
    24c4:	f2 e1       	ldi	r31, 0x12	; 18
    24c6:	0c 94 4f 15 	jmp	0x2a9e	; 0x2a9e <__prologue_saves__+0x6>
    24ca:	5c 01       	movw	r10, r24
    24cc:	96 2e       	mov	r9, r22
    24ce:	7a 01       	movw	r14, r20
    24d0:	f9 01       	movw	r30, r18
    24d2:	8e 01       	movw	r16, r28
    24d4:	0f 5f       	subi	r16, 0xFF	; 255
    24d6:	1f 4f       	sbci	r17, 0xFF	; 255
    24d8:	68 01       	movw	r12, r16
    24da:	80 e2       	ldi	r24, 0x20	; 32
    24dc:	d8 01       	movw	r26, r16
    24de:	1d 92       	st	X+, r1
    24e0:	8a 95       	dec	r24
    24e2:	e9 f7       	brne	.-6      	; 0x24de <conv_brk+0x20>
    24e4:	d5 01       	movw	r26, r10
    24e6:	13 96       	adiw	r26, 0x03	; 3
    24e8:	8c 90       	ld	r8, X
    24ea:	80 e0       	ldi	r24, 0x00	; 0
    24ec:	90 e0       	ldi	r25, 0x00	; 0
    24ee:	61 2c       	mov	r6, r1
    24f0:	71 2c       	mov	r7, r1
    24f2:	30 e0       	ldi	r19, 0x00	; 0
    24f4:	61 e0       	ldi	r22, 0x01	; 1
    24f6:	70 e0       	ldi	r23, 0x00	; 0
    24f8:	83 fc       	sbrc	r8, 3
    24fa:	25 91       	lpm	r18, Z+
    24fc:	83 fe       	sbrs	r8, 3
    24fe:	21 91       	ld	r18, Z+
    2500:	8f 01       	movw	r16, r30
    2502:	52 2e       	mov	r5, r18
    2504:	21 11       	cpse	r18, r1
    2506:	03 c0       	rjmp	.+6      	; 0x250e <conv_brk+0x50>
    2508:	80 e0       	ldi	r24, 0x00	; 0
    250a:	90 e0       	ldi	r25, 0x00	; 0
    250c:	92 c0       	rjmp	.+292    	; 0x2632 <conv_brk+0x174>
    250e:	2e 35       	cpi	r18, 0x5E	; 94
    2510:	11 f4       	brne	.+4      	; 0x2516 <conv_brk+0x58>
    2512:	00 97       	sbiw	r24, 0x00	; 0
    2514:	51 f1       	breq	.+84     	; 0x256a <conv_brk+0xac>
    2516:	43 2f       	mov	r20, r19
    2518:	50 e0       	ldi	r21, 0x00	; 0
    251a:	48 17       	cp	r20, r24
    251c:	59 07       	cpc	r21, r25
    251e:	3c f4       	brge	.+14     	; 0x252e <conv_brk+0x70>
    2520:	2d 35       	cpi	r18, 0x5D	; 93
    2522:	59 f1       	breq	.+86     	; 0x257a <conv_brk+0xbc>
    2524:	2d 32       	cpi	r18, 0x2D	; 45
    2526:	19 f4       	brne	.+6      	; 0x252e <conv_brk+0x70>
    2528:	77 20       	and	r7, r7
    252a:	09 f1       	breq	.+66     	; 0x256e <conv_brk+0xb0>
    252c:	03 c0       	rjmp	.+6      	; 0x2534 <conv_brk+0x76>
    252e:	77 20       	and	r7, r7
    2530:	09 f4       	brne	.+2      	; 0x2534 <conv_brk+0x76>
    2532:	6a c0       	rjmp	.+212    	; 0x2608 <conv_brk+0x14a>
    2534:	45 2d       	mov	r20, r5
    2536:	46 95       	lsr	r20
    2538:	46 95       	lsr	r20
    253a:	46 95       	lsr	r20
    253c:	d6 01       	movw	r26, r12
    253e:	a4 0f       	add	r26, r20
    2540:	b1 1d       	adc	r27, r1
    2542:	45 2d       	mov	r20, r5
    2544:	47 70       	andi	r20, 0x07	; 7
    2546:	8b 01       	movw	r16, r22
    2548:	02 c0       	rjmp	.+4      	; 0x254e <conv_brk+0x90>
    254a:	00 0f       	add	r16, r16
    254c:	11 1f       	adc	r17, r17
    254e:	4a 95       	dec	r20
    2550:	e2 f7       	brpl	.-8      	; 0x254a <conv_brk+0x8c>
    2552:	a8 01       	movw	r20, r16
    2554:	5c 91       	ld	r21, X
    2556:	45 2b       	or	r20, r21
    2558:	4c 93       	st	X, r20
    255a:	65 14       	cp	r6, r5
    255c:	59 f0       	breq	.+22     	; 0x2574 <conv_brk+0xb6>
    255e:	56 14       	cp	r5, r6
    2560:	10 f4       	brcc	.+4      	; 0x2566 <conv_brk+0xa8>
    2562:	53 94       	inc	r5
    2564:	e7 cf       	rjmp	.-50     	; 0x2534 <conv_brk+0x76>
    2566:	5a 94       	dec	r5
    2568:	e5 cf       	rjmp	.-54     	; 0x2534 <conv_brk+0x76>
    256a:	31 e0       	ldi	r19, 0x01	; 1
    256c:	04 c0       	rjmp	.+8      	; 0x2576 <conv_brk+0xb8>
    256e:	77 24       	eor	r7, r7
    2570:	73 94       	inc	r7
    2572:	01 c0       	rjmp	.+2      	; 0x2576 <conv_brk+0xb8>
    2574:	71 2c       	mov	r7, r1
    2576:	01 96       	adiw	r24, 0x01	; 1
    2578:	bf cf       	rjmp	.-130    	; 0x24f8 <conv_brk+0x3a>
    257a:	77 20       	and	r7, r7
    257c:	19 f0       	breq	.+6      	; 0x2584 <conv_brk+0xc6>
    257e:	8e 81       	ldd	r24, Y+6	; 0x06
    2580:	80 62       	ori	r24, 0x20	; 32
    2582:	8e 83       	std	Y+6, r24	; 0x06
    2584:	31 11       	cpse	r19, r1
    2586:	03 c0       	rjmp	.+6      	; 0x258e <conv_brk+0xd0>
    2588:	88 24       	eor	r8, r8
    258a:	83 94       	inc	r8
    258c:	17 c0       	rjmp	.+46     	; 0x25bc <conv_brk+0xfe>
    258e:	f6 01       	movw	r30, r12
    2590:	9e 01       	movw	r18, r28
    2592:	2f 5d       	subi	r18, 0xDF	; 223
    2594:	3f 4f       	sbci	r19, 0xFF	; 255
    2596:	80 81       	ld	r24, Z
    2598:	80 95       	com	r24
    259a:	81 93       	st	Z+, r24
    259c:	2e 17       	cp	r18, r30
    259e:	3f 07       	cpc	r19, r31
    25a0:	d1 f7       	brne	.-12     	; 0x2596 <conv_brk+0xd8>
    25a2:	f2 cf       	rjmp	.-28     	; 0x2588 <conv_brk+0xca>
    25a4:	e1 14       	cp	r14, r1
    25a6:	f1 04       	cpc	r15, r1
    25a8:	29 f0       	breq	.+10     	; 0x25b4 <conv_brk+0xf6>
    25aa:	d7 01       	movw	r26, r14
    25ac:	8c 93       	st	X, r24
    25ae:	f7 01       	movw	r30, r14
    25b0:	31 96       	adiw	r30, 0x01	; 1
    25b2:	7f 01       	movw	r14, r30
    25b4:	9a 94       	dec	r9
    25b6:	81 2c       	mov	r8, r1
    25b8:	99 20       	and	r9, r9
    25ba:	f9 f0       	breq	.+62     	; 0x25fa <conv_brk+0x13c>
    25bc:	c5 01       	movw	r24, r10
    25be:	0e 94 58 14 	call	0x28b0	; 0x28b0 <fgetc>
    25c2:	97 fd       	sbrc	r25, 7
    25c4:	18 c0       	rjmp	.+48     	; 0x25f6 <conv_brk+0x138>
    25c6:	fc 01       	movw	r30, r24
    25c8:	ff 27       	eor	r31, r31
    25ca:	23 e0       	ldi	r18, 0x03	; 3
    25cc:	f5 95       	asr	r31
    25ce:	e7 95       	ror	r30
    25d0:	2a 95       	dec	r18
    25d2:	e1 f7       	brne	.-8      	; 0x25cc <conv_brk+0x10e>
    25d4:	ec 0d       	add	r30, r12
    25d6:	fd 1d       	adc	r31, r13
    25d8:	20 81       	ld	r18, Z
    25da:	30 e0       	ldi	r19, 0x00	; 0
    25dc:	ac 01       	movw	r20, r24
    25de:	47 70       	andi	r20, 0x07	; 7
    25e0:	55 27       	eor	r21, r21
    25e2:	02 c0       	rjmp	.+4      	; 0x25e8 <conv_brk+0x12a>
    25e4:	35 95       	asr	r19
    25e6:	27 95       	ror	r18
    25e8:	4a 95       	dec	r20
    25ea:	e2 f7       	brpl	.-8      	; 0x25e4 <conv_brk+0x126>
    25ec:	20 fd       	sbrc	r18, 0
    25ee:	da cf       	rjmp	.-76     	; 0x25a4 <conv_brk+0xe6>
    25f0:	b5 01       	movw	r22, r10
    25f2:	0e 94 d2 14 	call	0x29a4	; 0x29a4 <ungetc>
    25f6:	81 10       	cpse	r8, r1
    25f8:	87 cf       	rjmp	.-242    	; 0x2508 <conv_brk+0x4a>
    25fa:	e1 14       	cp	r14, r1
    25fc:	f1 04       	cpc	r15, r1
    25fe:	11 f0       	breq	.+4      	; 0x2604 <conv_brk+0x146>
    2600:	d7 01       	movw	r26, r14
    2602:	1c 92       	st	X, r1
    2604:	c8 01       	movw	r24, r16
    2606:	15 c0       	rjmp	.+42     	; 0x2632 <conv_brk+0x174>
    2608:	42 2f       	mov	r20, r18
    260a:	46 95       	lsr	r20
    260c:	46 95       	lsr	r20
    260e:	46 95       	lsr	r20
    2610:	d6 01       	movw	r26, r12
    2612:	a4 0f       	add	r26, r20
    2614:	b1 1d       	adc	r27, r1
    2616:	42 2f       	mov	r20, r18
    2618:	47 70       	andi	r20, 0x07	; 7
    261a:	8b 01       	movw	r16, r22
    261c:	02 c0       	rjmp	.+4      	; 0x2622 <conv_brk+0x164>
    261e:	00 0f       	add	r16, r16
    2620:	11 1f       	adc	r17, r17
    2622:	4a 95       	dec	r20
    2624:	e2 f7       	brpl	.-8      	; 0x261e <conv_brk+0x160>
    2626:	a8 01       	movw	r20, r16
    2628:	5c 91       	ld	r21, X
    262a:	45 2b       	or	r20, r21
    262c:	4c 93       	st	X, r20
    262e:	62 2e       	mov	r6, r18
    2630:	a2 cf       	rjmp	.-188    	; 0x2576 <conv_brk+0xb8>
    2632:	a0 96       	adiw	r28, 0x20	; 32
    2634:	ef e0       	ldi	r30, 0x0F	; 15
    2636:	0c 94 6b 15 	jmp	0x2ad6	; 0x2ad6 <__epilogue_restores__+0x6>

0000263a <vfscanf>:
    263a:	a0 e0       	ldi	r26, 0x00	; 0
    263c:	b0 e0       	ldi	r27, 0x00	; 0
    263e:	e3 e2       	ldi	r30, 0x23	; 35
    2640:	f3 e1       	ldi	r31, 0x13	; 19
    2642:	0c 94 4f 15 	jmp	0x2a9e	; 0x2a9e <__prologue_saves__+0x6>
    2646:	6c 01       	movw	r12, r24
    2648:	eb 01       	movw	r28, r22
    264a:	5a 01       	movw	r10, r20
    264c:	fc 01       	movw	r30, r24
    264e:	17 82       	std	Z+7, r1	; 0x07
    2650:	16 82       	std	Z+6, r1	; 0x06
    2652:	51 2c       	mov	r5, r1
    2654:	f6 01       	movw	r30, r12
    2656:	e3 80       	ldd	r14, Z+3	; 0x03
    2658:	fe 01       	movw	r30, r28
    265a:	e3 fc       	sbrc	r14, 3
    265c:	85 91       	lpm	r24, Z+
    265e:	e3 fe       	sbrs	r14, 3
    2660:	81 91       	ld	r24, Z+
    2662:	18 2f       	mov	r17, r24
    2664:	ef 01       	movw	r28, r30
    2666:	88 23       	and	r24, r24
    2668:	09 f4       	brne	.+2      	; 0x266c <vfscanf+0x32>
    266a:	ee c0       	rjmp	.+476    	; 0x2848 <vfscanf+0x20e>
    266c:	90 e0       	ldi	r25, 0x00	; 0
    266e:	0e 94 2e 14 	call	0x285c	; 0x285c <isspace>
    2672:	89 2b       	or	r24, r25
    2674:	21 f0       	breq	.+8      	; 0x267e <vfscanf+0x44>
    2676:	c6 01       	movw	r24, r12
    2678:	0e 94 b4 11 	call	0x2368	; 0x2368 <skip_spaces>
    267c:	eb cf       	rjmp	.-42     	; 0x2654 <vfscanf+0x1a>
    267e:	15 32       	cpi	r17, 0x25	; 37
    2680:	41 f4       	brne	.+16     	; 0x2692 <vfscanf+0x58>
    2682:	fe 01       	movw	r30, r28
    2684:	e3 fc       	sbrc	r14, 3
    2686:	15 91       	lpm	r17, Z+
    2688:	e3 fe       	sbrs	r14, 3
    268a:	11 91       	ld	r17, Z+
    268c:	ef 01       	movw	r28, r30
    268e:	15 32       	cpi	r17, 0x25	; 37
    2690:	81 f4       	brne	.+32     	; 0x26b2 <vfscanf+0x78>
    2692:	c6 01       	movw	r24, r12
    2694:	0e 94 58 14 	call	0x28b0	; 0x28b0 <fgetc>
    2698:	97 fd       	sbrc	r25, 7
    269a:	d4 c0       	rjmp	.+424    	; 0x2844 <vfscanf+0x20a>
    269c:	41 2f       	mov	r20, r17
    269e:	50 e0       	ldi	r21, 0x00	; 0
    26a0:	9c 01       	movw	r18, r24
    26a2:	33 27       	eor	r19, r19
    26a4:	24 17       	cp	r18, r20
    26a6:	35 07       	cpc	r19, r21
    26a8:	a9 f2       	breq	.-86     	; 0x2654 <vfscanf+0x1a>
    26aa:	b6 01       	movw	r22, r12
    26ac:	0e 94 d2 14 	call	0x29a4	; 0x29a4 <ungetc>
    26b0:	cb c0       	rjmp	.+406    	; 0x2848 <vfscanf+0x20e>
    26b2:	1a 32       	cpi	r17, 0x2A	; 42
    26b4:	39 f4       	brne	.+14     	; 0x26c4 <vfscanf+0x8a>
    26b6:	e3 fc       	sbrc	r14, 3
    26b8:	15 91       	lpm	r17, Z+
    26ba:	e3 fe       	sbrs	r14, 3
    26bc:	11 91       	ld	r17, Z+
    26be:	ef 01       	movw	r28, r30
    26c0:	01 e0       	ldi	r16, 0x01	; 1
    26c2:	01 c0       	rjmp	.+2      	; 0x26c6 <vfscanf+0x8c>
    26c4:	00 e0       	ldi	r16, 0x00	; 0
    26c6:	f1 2c       	mov	r15, r1
    26c8:	20 ed       	ldi	r18, 0xD0	; 208
    26ca:	21 0f       	add	r18, r17
    26cc:	2a 30       	cpi	r18, 0x0A	; 10
    26ce:	80 f4       	brcc	.+32     	; 0x26f0 <vfscanf+0xb6>
    26d0:	02 60       	ori	r16, 0x02	; 2
    26d2:	6f 2d       	mov	r22, r15
    26d4:	70 e0       	ldi	r23, 0x00	; 0
    26d6:	80 e0       	ldi	r24, 0x00	; 0
    26d8:	90 e0       	ldi	r25, 0x00	; 0
    26da:	40 e2       	ldi	r20, 0x20	; 32
    26dc:	0e 94 8d 11 	call	0x231a	; 0x231a <mulacc>
    26e0:	f6 2e       	mov	r15, r22
    26e2:	fe 01       	movw	r30, r28
    26e4:	e3 fc       	sbrc	r14, 3
    26e6:	15 91       	lpm	r17, Z+
    26e8:	e3 fe       	sbrs	r14, 3
    26ea:	11 91       	ld	r17, Z+
    26ec:	ef 01       	movw	r28, r30
    26ee:	ec cf       	rjmp	.-40     	; 0x26c8 <vfscanf+0x8e>
    26f0:	01 ff       	sbrs	r16, 1
    26f2:	03 c0       	rjmp	.+6      	; 0x26fa <vfscanf+0xc0>
    26f4:	f1 10       	cpse	r15, r1
    26f6:	03 c0       	rjmp	.+6      	; 0x26fe <vfscanf+0xc4>
    26f8:	a7 c0       	rjmp	.+334    	; 0x2848 <vfscanf+0x20e>
    26fa:	ff 24       	eor	r15, r15
    26fc:	fa 94       	dec	r15
    26fe:	18 36       	cpi	r17, 0x68	; 104
    2700:	19 f0       	breq	.+6      	; 0x2708 <vfscanf+0xce>
    2702:	1c 36       	cpi	r17, 0x6C	; 108
    2704:	51 f0       	breq	.+20     	; 0x271a <vfscanf+0xe0>
    2706:	10 c0       	rjmp	.+32     	; 0x2728 <vfscanf+0xee>
    2708:	fe 01       	movw	r30, r28
    270a:	e3 fc       	sbrc	r14, 3
    270c:	15 91       	lpm	r17, Z+
    270e:	e3 fe       	sbrs	r14, 3
    2710:	11 91       	ld	r17, Z+
    2712:	ef 01       	movw	r28, r30
    2714:	18 36       	cpi	r17, 0x68	; 104
    2716:	41 f4       	brne	.+16     	; 0x2728 <vfscanf+0xee>
    2718:	08 60       	ori	r16, 0x08	; 8
    271a:	04 60       	ori	r16, 0x04	; 4
    271c:	fe 01       	movw	r30, r28
    271e:	e3 fc       	sbrc	r14, 3
    2720:	15 91       	lpm	r17, Z+
    2722:	e3 fe       	sbrs	r14, 3
    2724:	11 91       	ld	r17, Z+
    2726:	ef 01       	movw	r28, r30
    2728:	11 23       	and	r17, r17
    272a:	09 f4       	brne	.+2      	; 0x272e <vfscanf+0xf4>
    272c:	8d c0       	rjmp	.+282    	; 0x2848 <vfscanf+0x20e>
    272e:	61 2f       	mov	r22, r17
    2730:	70 e0       	ldi	r23, 0x00	; 0
    2732:	88 e6       	ldi	r24, 0x68	; 104
    2734:	90 e0       	ldi	r25, 0x00	; 0
    2736:	0e 94 37 14 	call	0x286e	; 0x286e <strchr_P>
    273a:	89 2b       	or	r24, r25
    273c:	09 f4       	brne	.+2      	; 0x2740 <vfscanf+0x106>
    273e:	84 c0       	rjmp	.+264    	; 0x2848 <vfscanf+0x20e>
    2740:	00 fd       	sbrc	r16, 0
    2742:	07 c0       	rjmp	.+14     	; 0x2752 <vfscanf+0x118>
    2744:	f5 01       	movw	r30, r10
    2746:	80 80       	ld	r8, Z
    2748:	91 80       	ldd	r9, Z+1	; 0x01
    274a:	c5 01       	movw	r24, r10
    274c:	02 96       	adiw	r24, 0x02	; 2
    274e:	5c 01       	movw	r10, r24
    2750:	02 c0       	rjmp	.+4      	; 0x2756 <vfscanf+0x11c>
    2752:	81 2c       	mov	r8, r1
    2754:	91 2c       	mov	r9, r1
    2756:	1e 36       	cpi	r17, 0x6E	; 110
    2758:	51 f4       	brne	.+20     	; 0x276e <vfscanf+0x134>
    275a:	f6 01       	movw	r30, r12
    275c:	46 81       	ldd	r20, Z+6	; 0x06
    275e:	57 81       	ldd	r21, Z+7	; 0x07
    2760:	60 e0       	ldi	r22, 0x00	; 0
    2762:	70 e0       	ldi	r23, 0x00	; 0
    2764:	20 2f       	mov	r18, r16
    2766:	c4 01       	movw	r24, r8
    2768:	0e 94 81 11 	call	0x2302	; 0x2302 <putval>
    276c:	73 cf       	rjmp	.-282    	; 0x2654 <vfscanf+0x1a>
    276e:	13 36       	cpi	r17, 0x63	; 99
    2770:	a9 f4       	brne	.+42     	; 0x279c <vfscanf+0x162>
    2772:	01 fd       	sbrc	r16, 1
    2774:	02 c0       	rjmp	.+4      	; 0x277a <vfscanf+0x140>
    2776:	ff 24       	eor	r15, r15
    2778:	f3 94       	inc	r15
    277a:	c6 01       	movw	r24, r12
    277c:	0e 94 58 14 	call	0x28b0	; 0x28b0 <fgetc>
    2780:	97 fd       	sbrc	r25, 7
    2782:	60 c0       	rjmp	.+192    	; 0x2844 <vfscanf+0x20a>
    2784:	81 14       	cp	r8, r1
    2786:	91 04       	cpc	r9, r1
    2788:	29 f0       	breq	.+10     	; 0x2794 <vfscanf+0x15a>
    278a:	f4 01       	movw	r30, r8
    278c:	80 83       	st	Z, r24
    278e:	c4 01       	movw	r24, r8
    2790:	01 96       	adiw	r24, 0x01	; 1
    2792:	4c 01       	movw	r8, r24
    2794:	fa 94       	dec	r15
    2796:	f1 10       	cpse	r15, r1
    2798:	f0 cf       	rjmp	.-32     	; 0x277a <vfscanf+0x140>
    279a:	50 c0       	rjmp	.+160    	; 0x283c <vfscanf+0x202>
    279c:	1b 35       	cpi	r17, 0x5B	; 91
    279e:	59 f4       	brne	.+22     	; 0x27b6 <vfscanf+0x17c>
    27a0:	9e 01       	movw	r18, r28
    27a2:	a4 01       	movw	r20, r8
    27a4:	6f 2d       	mov	r22, r15
    27a6:	c6 01       	movw	r24, r12
    27a8:	0e 94 5f 12 	call	0x24be	; 0x24be <conv_brk>
    27ac:	ec 01       	movw	r28, r24
    27ae:	89 2b       	or	r24, r25
    27b0:	09 f0       	breq	.+2      	; 0x27b4 <vfscanf+0x17a>
    27b2:	44 c0       	rjmp	.+136    	; 0x283c <vfscanf+0x202>
    27b4:	3e c0       	rjmp	.+124    	; 0x2832 <vfscanf+0x1f8>
    27b6:	c6 01       	movw	r24, r12
    27b8:	0e 94 b4 11 	call	0x2368	; 0x2368 <skip_spaces>
    27bc:	97 fd       	sbrc	r25, 7
    27be:	42 c0       	rjmp	.+132    	; 0x2844 <vfscanf+0x20a>
    27c0:	1f 36       	cpi	r17, 0x6F	; 111
    27c2:	61 f1       	breq	.+88     	; 0x281c <vfscanf+0x1e2>
    27c4:	28 f4       	brcc	.+10     	; 0x27d0 <vfscanf+0x196>
    27c6:	14 36       	cpi	r17, 0x64	; 100
    27c8:	39 f1       	breq	.+78     	; 0x2818 <vfscanf+0x1de>
    27ca:	19 36       	cpi	r17, 0x69	; 105
    27cc:	51 f1       	breq	.+84     	; 0x2822 <vfscanf+0x1e8>
    27ce:	28 c0       	rjmp	.+80     	; 0x2820 <vfscanf+0x1e6>
    27d0:	13 37       	cpi	r17, 0x73	; 115
    27d2:	71 f0       	breq	.+28     	; 0x27f0 <vfscanf+0x1b6>
    27d4:	15 37       	cpi	r17, 0x75	; 117
    27d6:	01 f1       	breq	.+64     	; 0x2818 <vfscanf+0x1de>
    27d8:	23 c0       	rjmp	.+70     	; 0x2820 <vfscanf+0x1e6>
    27da:	81 14       	cp	r8, r1
    27dc:	91 04       	cpc	r9, r1
    27de:	29 f0       	breq	.+10     	; 0x27ea <vfscanf+0x1b0>
    27e0:	f4 01       	movw	r30, r8
    27e2:	60 82       	st	Z, r6
    27e4:	c4 01       	movw	r24, r8
    27e6:	01 96       	adiw	r24, 0x01	; 1
    27e8:	4c 01       	movw	r8, r24
    27ea:	fa 94       	dec	r15
    27ec:	ff 20       	and	r15, r15
    27ee:	71 f0       	breq	.+28     	; 0x280c <vfscanf+0x1d2>
    27f0:	c6 01       	movw	r24, r12
    27f2:	0e 94 58 14 	call	0x28b0	; 0x28b0 <fgetc>
    27f6:	3c 01       	movw	r6, r24
    27f8:	97 fd       	sbrc	r25, 7
    27fa:	08 c0       	rjmp	.+16     	; 0x280c <vfscanf+0x1d2>
    27fc:	0e 94 2e 14 	call	0x285c	; 0x285c <isspace>
    2800:	89 2b       	or	r24, r25
    2802:	59 f3       	breq	.-42     	; 0x27da <vfscanf+0x1a0>
    2804:	b6 01       	movw	r22, r12
    2806:	c3 01       	movw	r24, r6
    2808:	0e 94 d2 14 	call	0x29a4	; 0x29a4 <ungetc>
    280c:	81 14       	cp	r8, r1
    280e:	91 04       	cpc	r9, r1
    2810:	a9 f0       	breq	.+42     	; 0x283c <vfscanf+0x202>
    2812:	f4 01       	movw	r30, r8
    2814:	10 82       	st	Z, r1
    2816:	12 c0       	rjmp	.+36     	; 0x283c <vfscanf+0x202>
    2818:	00 62       	ori	r16, 0x20	; 32
    281a:	03 c0       	rjmp	.+6      	; 0x2822 <vfscanf+0x1e8>
    281c:	00 61       	ori	r16, 0x10	; 16
    281e:	01 c0       	rjmp	.+2      	; 0x2822 <vfscanf+0x1e8>
    2820:	00 64       	ori	r16, 0x40	; 64
    2822:	20 2f       	mov	r18, r16
    2824:	a4 01       	movw	r20, r8
    2826:	6f 2d       	mov	r22, r15
    2828:	c6 01       	movw	r24, r12
    282a:	0e 94 cd 11 	call	0x239a	; 0x239a <conv_int>
    282e:	81 11       	cpse	r24, r1
    2830:	05 c0       	rjmp	.+10     	; 0x283c <vfscanf+0x202>
    2832:	f6 01       	movw	r30, r12
    2834:	83 81       	ldd	r24, Z+3	; 0x03
    2836:	80 73       	andi	r24, 0x30	; 48
    2838:	29 f4       	brne	.+10     	; 0x2844 <vfscanf+0x20a>
    283a:	06 c0       	rjmp	.+12     	; 0x2848 <vfscanf+0x20e>
    283c:	00 fd       	sbrc	r16, 0
    283e:	0a cf       	rjmp	.-492    	; 0x2654 <vfscanf+0x1a>
    2840:	53 94       	inc	r5
    2842:	08 cf       	rjmp	.-496    	; 0x2654 <vfscanf+0x1a>
    2844:	55 20       	and	r5, r5
    2846:	19 f0       	breq	.+6      	; 0x284e <vfscanf+0x214>
    2848:	85 2d       	mov	r24, r5
    284a:	90 e0       	ldi	r25, 0x00	; 0
    284c:	02 c0       	rjmp	.+4      	; 0x2852 <vfscanf+0x218>
    284e:	8f ef       	ldi	r24, 0xFF	; 255
    2850:	9f ef       	ldi	r25, 0xFF	; 255
    2852:	cd b7       	in	r28, 0x3d	; 61
    2854:	de b7       	in	r29, 0x3e	; 62
    2856:	ef e0       	ldi	r30, 0x0F	; 15
    2858:	0c 94 6b 15 	jmp	0x2ad6	; 0x2ad6 <__epilogue_restores__+0x6>

0000285c <isspace>:
    285c:	91 11       	cpse	r25, r1
    285e:	0c 94 49 15 	jmp	0x2a92	; 0x2a92 <__ctype_isfalse>
    2862:	80 32       	cpi	r24, 0x20	; 32
    2864:	19 f0       	breq	.+6      	; 0x286c <isspace+0x10>
    2866:	89 50       	subi	r24, 0x09	; 9
    2868:	85 50       	subi	r24, 0x05	; 5
    286a:	c8 f7       	brcc	.-14     	; 0x285e <isspace+0x2>
    286c:	08 95       	ret

0000286e <strchr_P>:
    286e:	fc 01       	movw	r30, r24
    2870:	05 90       	lpm	r0, Z+
    2872:	06 16       	cp	r0, r22
    2874:	21 f0       	breq	.+8      	; 0x287e <strchr_P+0x10>
    2876:	00 20       	and	r0, r0
    2878:	d9 f7       	brne	.-10     	; 0x2870 <strchr_P+0x2>
    287a:	c0 01       	movw	r24, r0
    287c:	08 95       	ret
    287e:	31 97       	sbiw	r30, 0x01	; 1
    2880:	cf 01       	movw	r24, r30
    2882:	08 95       	ret

00002884 <strnlen_P>:
    2884:	fc 01       	movw	r30, r24
    2886:	05 90       	lpm	r0, Z+
    2888:	61 50       	subi	r22, 0x01	; 1
    288a:	70 40       	sbci	r23, 0x00	; 0
    288c:	01 10       	cpse	r0, r1
    288e:	d8 f7       	brcc	.-10     	; 0x2886 <strnlen_P+0x2>
    2890:	80 95       	com	r24
    2892:	90 95       	com	r25
    2894:	8e 0f       	add	r24, r30
    2896:	9f 1f       	adc	r25, r31
    2898:	08 95       	ret

0000289a <strnlen>:
    289a:	fc 01       	movw	r30, r24
    289c:	61 50       	subi	r22, 0x01	; 1
    289e:	70 40       	sbci	r23, 0x00	; 0
    28a0:	01 90       	ld	r0, Z+
    28a2:	01 10       	cpse	r0, r1
    28a4:	d8 f7       	brcc	.-10     	; 0x289c <strnlen+0x2>
    28a6:	80 95       	com	r24
    28a8:	90 95       	com	r25
    28aa:	8e 0f       	add	r24, r30
    28ac:	9f 1f       	adc	r25, r31
    28ae:	08 95       	ret

000028b0 <fgetc>:
    28b0:	cf 93       	push	r28
    28b2:	df 93       	push	r29
    28b4:	ec 01       	movw	r28, r24
    28b6:	2b 81       	ldd	r18, Y+3	; 0x03
    28b8:	20 ff       	sbrs	r18, 0
    28ba:	33 c0       	rjmp	.+102    	; 0x2922 <fgetc+0x72>
    28bc:	26 ff       	sbrs	r18, 6
    28be:	0a c0       	rjmp	.+20     	; 0x28d4 <fgetc+0x24>
    28c0:	2f 7b       	andi	r18, 0xBF	; 191
    28c2:	2b 83       	std	Y+3, r18	; 0x03
    28c4:	8e 81       	ldd	r24, Y+6	; 0x06
    28c6:	9f 81       	ldd	r25, Y+7	; 0x07
    28c8:	01 96       	adiw	r24, 0x01	; 1
    28ca:	9f 83       	std	Y+7, r25	; 0x07
    28cc:	8e 83       	std	Y+6, r24	; 0x06
    28ce:	8a 81       	ldd	r24, Y+2	; 0x02
    28d0:	90 e0       	ldi	r25, 0x00	; 0
    28d2:	29 c0       	rjmp	.+82     	; 0x2926 <fgetc+0x76>
    28d4:	22 ff       	sbrs	r18, 2
    28d6:	0f c0       	rjmp	.+30     	; 0x28f6 <fgetc+0x46>
    28d8:	e8 81       	ld	r30, Y
    28da:	f9 81       	ldd	r31, Y+1	; 0x01
    28dc:	80 81       	ld	r24, Z
    28de:	08 2e       	mov	r0, r24
    28e0:	00 0c       	add	r0, r0
    28e2:	99 0b       	sbc	r25, r25
    28e4:	00 97       	sbiw	r24, 0x00	; 0
    28e6:	19 f4       	brne	.+6      	; 0x28ee <fgetc+0x3e>
    28e8:	20 62       	ori	r18, 0x20	; 32
    28ea:	2b 83       	std	Y+3, r18	; 0x03
    28ec:	1a c0       	rjmp	.+52     	; 0x2922 <fgetc+0x72>
    28ee:	31 96       	adiw	r30, 0x01	; 1
    28f0:	f9 83       	std	Y+1, r31	; 0x01
    28f2:	e8 83       	st	Y, r30
    28f4:	0e c0       	rjmp	.+28     	; 0x2912 <fgetc+0x62>
    28f6:	ea 85       	ldd	r30, Y+10	; 0x0a
    28f8:	fb 85       	ldd	r31, Y+11	; 0x0b
    28fa:	09 95       	icall
    28fc:	97 ff       	sbrs	r25, 7
    28fe:	09 c0       	rjmp	.+18     	; 0x2912 <fgetc+0x62>
    2900:	2b 81       	ldd	r18, Y+3	; 0x03
    2902:	01 96       	adiw	r24, 0x01	; 1
    2904:	11 f0       	breq	.+4      	; 0x290a <fgetc+0x5a>
    2906:	80 e2       	ldi	r24, 0x20	; 32
    2908:	01 c0       	rjmp	.+2      	; 0x290c <fgetc+0x5c>
    290a:	80 e1       	ldi	r24, 0x10	; 16
    290c:	82 2b       	or	r24, r18
    290e:	8b 83       	std	Y+3, r24	; 0x03
    2910:	08 c0       	rjmp	.+16     	; 0x2922 <fgetc+0x72>
    2912:	2e 81       	ldd	r18, Y+6	; 0x06
    2914:	3f 81       	ldd	r19, Y+7	; 0x07
    2916:	2f 5f       	subi	r18, 0xFF	; 255
    2918:	3f 4f       	sbci	r19, 0xFF	; 255
    291a:	3f 83       	std	Y+7, r19	; 0x07
    291c:	2e 83       	std	Y+6, r18	; 0x06
    291e:	99 27       	eor	r25, r25
    2920:	02 c0       	rjmp	.+4      	; 0x2926 <fgetc+0x76>
    2922:	8f ef       	ldi	r24, 0xFF	; 255
    2924:	9f ef       	ldi	r25, 0xFF	; 255
    2926:	df 91       	pop	r29
    2928:	cf 91       	pop	r28
    292a:	08 95       	ret

0000292c <fputc>:
    292c:	0f 93       	push	r16
    292e:	1f 93       	push	r17
    2930:	cf 93       	push	r28
    2932:	df 93       	push	r29
    2934:	fb 01       	movw	r30, r22
    2936:	23 81       	ldd	r18, Z+3	; 0x03
    2938:	21 fd       	sbrc	r18, 1
    293a:	03 c0       	rjmp	.+6      	; 0x2942 <fputc+0x16>
    293c:	8f ef       	ldi	r24, 0xFF	; 255
    293e:	9f ef       	ldi	r25, 0xFF	; 255
    2940:	2c c0       	rjmp	.+88     	; 0x299a <fputc+0x6e>
    2942:	22 ff       	sbrs	r18, 2
    2944:	16 c0       	rjmp	.+44     	; 0x2972 <fputc+0x46>
    2946:	46 81       	ldd	r20, Z+6	; 0x06
    2948:	57 81       	ldd	r21, Z+7	; 0x07
    294a:	24 81       	ldd	r18, Z+4	; 0x04
    294c:	35 81       	ldd	r19, Z+5	; 0x05
    294e:	42 17       	cp	r20, r18
    2950:	53 07       	cpc	r21, r19
    2952:	44 f4       	brge	.+16     	; 0x2964 <fputc+0x38>
    2954:	a0 81       	ld	r26, Z
    2956:	b1 81       	ldd	r27, Z+1	; 0x01
    2958:	9d 01       	movw	r18, r26
    295a:	2f 5f       	subi	r18, 0xFF	; 255
    295c:	3f 4f       	sbci	r19, 0xFF	; 255
    295e:	31 83       	std	Z+1, r19	; 0x01
    2960:	20 83       	st	Z, r18
    2962:	8c 93       	st	X, r24
    2964:	26 81       	ldd	r18, Z+6	; 0x06
    2966:	37 81       	ldd	r19, Z+7	; 0x07
    2968:	2f 5f       	subi	r18, 0xFF	; 255
    296a:	3f 4f       	sbci	r19, 0xFF	; 255
    296c:	37 83       	std	Z+7, r19	; 0x07
    296e:	26 83       	std	Z+6, r18	; 0x06
    2970:	14 c0       	rjmp	.+40     	; 0x299a <fputc+0x6e>
    2972:	8b 01       	movw	r16, r22
    2974:	ec 01       	movw	r28, r24
    2976:	fb 01       	movw	r30, r22
    2978:	00 84       	ldd	r0, Z+8	; 0x08
    297a:	f1 85       	ldd	r31, Z+9	; 0x09
    297c:	e0 2d       	mov	r30, r0
    297e:	09 95       	icall
    2980:	89 2b       	or	r24, r25
    2982:	e1 f6       	brne	.-72     	; 0x293c <fputc+0x10>
    2984:	d8 01       	movw	r26, r16
    2986:	16 96       	adiw	r26, 0x06	; 6
    2988:	8d 91       	ld	r24, X+
    298a:	9c 91       	ld	r25, X
    298c:	17 97       	sbiw	r26, 0x07	; 7
    298e:	01 96       	adiw	r24, 0x01	; 1
    2990:	17 96       	adiw	r26, 0x07	; 7
    2992:	9c 93       	st	X, r25
    2994:	8e 93       	st	-X, r24
    2996:	16 97       	sbiw	r26, 0x06	; 6
    2998:	ce 01       	movw	r24, r28
    299a:	df 91       	pop	r29
    299c:	cf 91       	pop	r28
    299e:	1f 91       	pop	r17
    29a0:	0f 91       	pop	r16
    29a2:	08 95       	ret

000029a4 <ungetc>:
    29a4:	fb 01       	movw	r30, r22
    29a6:	23 81       	ldd	r18, Z+3	; 0x03
    29a8:	20 ff       	sbrs	r18, 0
    29aa:	12 c0       	rjmp	.+36     	; 0x29d0 <ungetc+0x2c>
    29ac:	26 fd       	sbrc	r18, 6
    29ae:	10 c0       	rjmp	.+32     	; 0x29d0 <ungetc+0x2c>
    29b0:	8f 3f       	cpi	r24, 0xFF	; 255
    29b2:	3f ef       	ldi	r19, 0xFF	; 255
    29b4:	93 07       	cpc	r25, r19
    29b6:	61 f0       	breq	.+24     	; 0x29d0 <ungetc+0x2c>
    29b8:	82 83       	std	Z+2, r24	; 0x02
    29ba:	2f 7d       	andi	r18, 0xDF	; 223
    29bc:	20 64       	ori	r18, 0x40	; 64
    29be:	23 83       	std	Z+3, r18	; 0x03
    29c0:	26 81       	ldd	r18, Z+6	; 0x06
    29c2:	37 81       	ldd	r19, Z+7	; 0x07
    29c4:	21 50       	subi	r18, 0x01	; 1
    29c6:	31 09       	sbc	r19, r1
    29c8:	37 83       	std	Z+7, r19	; 0x07
    29ca:	26 83       	std	Z+6, r18	; 0x06
    29cc:	99 27       	eor	r25, r25
    29ce:	08 95       	ret
    29d0:	8f ef       	ldi	r24, 0xFF	; 255
    29d2:	9f ef       	ldi	r25, 0xFF	; 255
    29d4:	08 95       	ret

000029d6 <__ultoa_invert>:
    29d6:	fa 01       	movw	r30, r20
    29d8:	aa 27       	eor	r26, r26
    29da:	28 30       	cpi	r18, 0x08	; 8
    29dc:	51 f1       	breq	.+84     	; 0x2a32 <__ultoa_invert+0x5c>
    29de:	20 31       	cpi	r18, 0x10	; 16
    29e0:	81 f1       	breq	.+96     	; 0x2a42 <__ultoa_invert+0x6c>
    29e2:	e8 94       	clt
    29e4:	6f 93       	push	r22
    29e6:	6e 7f       	andi	r22, 0xFE	; 254
    29e8:	6e 5f       	subi	r22, 0xFE	; 254
    29ea:	7f 4f       	sbci	r23, 0xFF	; 255
    29ec:	8f 4f       	sbci	r24, 0xFF	; 255
    29ee:	9f 4f       	sbci	r25, 0xFF	; 255
    29f0:	af 4f       	sbci	r26, 0xFF	; 255
    29f2:	b1 e0       	ldi	r27, 0x01	; 1
    29f4:	3e d0       	rcall	.+124    	; 0x2a72 <__ultoa_invert+0x9c>
    29f6:	b4 e0       	ldi	r27, 0x04	; 4
    29f8:	3c d0       	rcall	.+120    	; 0x2a72 <__ultoa_invert+0x9c>
    29fa:	67 0f       	add	r22, r23
    29fc:	78 1f       	adc	r23, r24
    29fe:	89 1f       	adc	r24, r25
    2a00:	9a 1f       	adc	r25, r26
    2a02:	a1 1d       	adc	r26, r1
    2a04:	68 0f       	add	r22, r24
    2a06:	79 1f       	adc	r23, r25
    2a08:	8a 1f       	adc	r24, r26
    2a0a:	91 1d       	adc	r25, r1
    2a0c:	a1 1d       	adc	r26, r1
    2a0e:	6a 0f       	add	r22, r26
    2a10:	71 1d       	adc	r23, r1
    2a12:	81 1d       	adc	r24, r1
    2a14:	91 1d       	adc	r25, r1
    2a16:	a1 1d       	adc	r26, r1
    2a18:	20 d0       	rcall	.+64     	; 0x2a5a <__ultoa_invert+0x84>
    2a1a:	09 f4       	brne	.+2      	; 0x2a1e <__ultoa_invert+0x48>
    2a1c:	68 94       	set
    2a1e:	3f 91       	pop	r19
    2a20:	2a e0       	ldi	r18, 0x0A	; 10
    2a22:	26 9f       	mul	r18, r22
    2a24:	11 24       	eor	r1, r1
    2a26:	30 19       	sub	r19, r0
    2a28:	30 5d       	subi	r19, 0xD0	; 208
    2a2a:	31 93       	st	Z+, r19
    2a2c:	de f6       	brtc	.-74     	; 0x29e4 <__ultoa_invert+0xe>
    2a2e:	cf 01       	movw	r24, r30
    2a30:	08 95       	ret
    2a32:	46 2f       	mov	r20, r22
    2a34:	47 70       	andi	r20, 0x07	; 7
    2a36:	40 5d       	subi	r20, 0xD0	; 208
    2a38:	41 93       	st	Z+, r20
    2a3a:	b3 e0       	ldi	r27, 0x03	; 3
    2a3c:	0f d0       	rcall	.+30     	; 0x2a5c <__ultoa_invert+0x86>
    2a3e:	c9 f7       	brne	.-14     	; 0x2a32 <__ultoa_invert+0x5c>
    2a40:	f6 cf       	rjmp	.-20     	; 0x2a2e <__ultoa_invert+0x58>
    2a42:	46 2f       	mov	r20, r22
    2a44:	4f 70       	andi	r20, 0x0F	; 15
    2a46:	40 5d       	subi	r20, 0xD0	; 208
    2a48:	4a 33       	cpi	r20, 0x3A	; 58
    2a4a:	18 f0       	brcs	.+6      	; 0x2a52 <__ultoa_invert+0x7c>
    2a4c:	49 5d       	subi	r20, 0xD9	; 217
    2a4e:	31 fd       	sbrc	r19, 1
    2a50:	40 52       	subi	r20, 0x20	; 32
    2a52:	41 93       	st	Z+, r20
    2a54:	02 d0       	rcall	.+4      	; 0x2a5a <__ultoa_invert+0x84>
    2a56:	a9 f7       	brne	.-22     	; 0x2a42 <__ultoa_invert+0x6c>
    2a58:	ea cf       	rjmp	.-44     	; 0x2a2e <__ultoa_invert+0x58>
    2a5a:	b4 e0       	ldi	r27, 0x04	; 4
    2a5c:	a6 95       	lsr	r26
    2a5e:	97 95       	ror	r25
    2a60:	87 95       	ror	r24
    2a62:	77 95       	ror	r23
    2a64:	67 95       	ror	r22
    2a66:	ba 95       	dec	r27
    2a68:	c9 f7       	brne	.-14     	; 0x2a5c <__ultoa_invert+0x86>
    2a6a:	00 97       	sbiw	r24, 0x00	; 0
    2a6c:	61 05       	cpc	r22, r1
    2a6e:	71 05       	cpc	r23, r1
    2a70:	08 95       	ret
    2a72:	9b 01       	movw	r18, r22
    2a74:	ac 01       	movw	r20, r24
    2a76:	0a 2e       	mov	r0, r26
    2a78:	06 94       	lsr	r0
    2a7a:	57 95       	ror	r21
    2a7c:	47 95       	ror	r20
    2a7e:	37 95       	ror	r19
    2a80:	27 95       	ror	r18
    2a82:	ba 95       	dec	r27
    2a84:	c9 f7       	brne	.-14     	; 0x2a78 <__ultoa_invert+0xa2>
    2a86:	62 0f       	add	r22, r18
    2a88:	73 1f       	adc	r23, r19
    2a8a:	84 1f       	adc	r24, r20
    2a8c:	95 1f       	adc	r25, r21
    2a8e:	a0 1d       	adc	r26, r0
    2a90:	08 95       	ret

00002a92 <__ctype_isfalse>:
    2a92:	99 27       	eor	r25, r25
    2a94:	88 27       	eor	r24, r24

00002a96 <__ctype_istrue>:
    2a96:	08 95       	ret

00002a98 <__prologue_saves__>:
    2a98:	2f 92       	push	r2
    2a9a:	3f 92       	push	r3
    2a9c:	4f 92       	push	r4
    2a9e:	5f 92       	push	r5
    2aa0:	6f 92       	push	r6
    2aa2:	7f 92       	push	r7
    2aa4:	8f 92       	push	r8
    2aa6:	9f 92       	push	r9
    2aa8:	af 92       	push	r10
    2aaa:	bf 92       	push	r11
    2aac:	cf 92       	push	r12
    2aae:	df 92       	push	r13
    2ab0:	ef 92       	push	r14
    2ab2:	ff 92       	push	r15
    2ab4:	0f 93       	push	r16
    2ab6:	1f 93       	push	r17
    2ab8:	cf 93       	push	r28
    2aba:	df 93       	push	r29
    2abc:	cd b7       	in	r28, 0x3d	; 61
    2abe:	de b7       	in	r29, 0x3e	; 62
    2ac0:	ca 1b       	sub	r28, r26
    2ac2:	db 0b       	sbc	r29, r27
    2ac4:	0f b6       	in	r0, 0x3f	; 63
    2ac6:	f8 94       	cli
    2ac8:	de bf       	out	0x3e, r29	; 62
    2aca:	0f be       	out	0x3f, r0	; 63
    2acc:	cd bf       	out	0x3d, r28	; 61
    2ace:	09 94       	ijmp

00002ad0 <__epilogue_restores__>:
    2ad0:	2a 88       	ldd	r2, Y+18	; 0x12
    2ad2:	39 88       	ldd	r3, Y+17	; 0x11
    2ad4:	48 88       	ldd	r4, Y+16	; 0x10
    2ad6:	5f 84       	ldd	r5, Y+15	; 0x0f
    2ad8:	6e 84       	ldd	r6, Y+14	; 0x0e
    2ada:	7d 84       	ldd	r7, Y+13	; 0x0d
    2adc:	8c 84       	ldd	r8, Y+12	; 0x0c
    2ade:	9b 84       	ldd	r9, Y+11	; 0x0b
    2ae0:	aa 84       	ldd	r10, Y+10	; 0x0a
    2ae2:	b9 84       	ldd	r11, Y+9	; 0x09
    2ae4:	c8 84       	ldd	r12, Y+8	; 0x08
    2ae6:	df 80       	ldd	r13, Y+7	; 0x07
    2ae8:	ee 80       	ldd	r14, Y+6	; 0x06
    2aea:	fd 80       	ldd	r15, Y+5	; 0x05
    2aec:	0c 81       	ldd	r16, Y+4	; 0x04
    2aee:	1b 81       	ldd	r17, Y+3	; 0x03
    2af0:	aa 81       	ldd	r26, Y+2	; 0x02
    2af2:	b9 81       	ldd	r27, Y+1	; 0x01
    2af4:	ce 0f       	add	r28, r30
    2af6:	d1 1d       	adc	r29, r1
    2af8:	0f b6       	in	r0, 0x3f	; 63
    2afa:	f8 94       	cli
    2afc:	de bf       	out	0x3e, r29	; 62
    2afe:	0f be       	out	0x3f, r0	; 63
    2b00:	cd bf       	out	0x3d, r28	; 61
    2b02:	ed 01       	movw	r28, r26
    2b04:	08 95       	ret

00002b06 <_exit>:
    2b06:	f8 94       	cli

00002b08 <__stop_program>:
    2b08:	ff cf       	rjmp	.-2      	; 0x2b08 <__stop_program>
